ARM GAS  C:\Users\BENAKA~1\AppData\Local\Temp\cchf5c2F.s 			page 1


   1              		.syntax unified
   2              		.cpu cortex-m0
   3              		.fpu softvfp
   4              		.eabi_attribute 20, 1
   5              		.eabi_attribute 21, 1
   6              		.eabi_attribute 23, 3
   7              		.eabi_attribute 24, 1
   8              		.eabi_attribute 25, 1
   9              		.eabi_attribute 26, 1
  10              		.eabi_attribute 30, 6
  11              		.eabi_attribute 34, 0
  12              		.eabi_attribute 18, 4
  13              		.thumb
  14              		.syntax unified
  15              		.file	"app_UART.c"
  16              		.text
  17              	.Ltext0:
  18              		.cfi_sections	.debug_frame
  19              		.global	flash_storage
  20              		.section	.rodata
  21              		.align	2
  22              		.type	flash_storage, %object
  23              		.size	flash_storage, 16
  24              	flash_storage:
  25 0000 00000000 		.space	16
  25      00000000 
  25      00000000 
  25      00000000 
  26              		.section	.text.StoreInFlash,"ax",%progbits
  27              		.align	2
  28              		.global	StoreInFlash
  29              		.code	16
  30              		.thumb_func
  31              		.type	StoreInFlash, %function
  32              	StoreInFlash:
  33              	.LFB36:
  34              		.file 1 "app_UART.c"
   1:app_UART.c    **** /*******************************************************************************
   2:app_UART.c    **** * File Name: app_UART.c
   3:app_UART.c    **** *
   4:app_UART.c    **** * Description:
   5:app_UART.c    **** *  Common BLE application code for client devices.
   6:app_UART.c    **** *
   7:app_UART.c    **** *******************************************************************************
   8:app_UART.c    **** * Copyright 2015, Cypress Semiconductor Corporation.  All rights reserved.
   9:app_UART.c    **** * You may use this file only in accordance with the license, terms, conditions,
  10:app_UART.c    **** * disclaimers, and limitations in the end user license agreement accompanying
  11:app_UART.c    **** * the software package with which this file was provided.
  12:app_UART.c    **** *******************************************************************************/
  13:app_UART.c    **** 
  14:app_UART.c    **** #include "app_UART.h"
  15:app_UART.c    **** #include "project.h"
  16:app_UART.c    **** #include <stdlib.h>
  17:app_UART.c    **** #include <stdio.h>
  18:app_UART.c    **** #include <string.h>
  19:app_UART.c    **** const uint8 flash_storage[16] = {0};
  20:app_UART.c    **** 
ARM GAS  C:\Users\BENAKA~1\AppData\Local\Temp\cchf5c2F.s 			page 2


  21:app_UART.c    **** void StoreInFlash(uint8 *newData, uint8 length)
  22:app_UART.c    **** {
  35              		.loc 1 22 0
  36              		.cfi_startproc
  37              		@ args = 0, pretend = 0, frame = 16
  38              		@ frame_needed = 1, uses_anonymous_args = 0
  39 0000 90B5     		push	{r4, r7, lr}
  40              		.cfi_def_cfa_offset 12
  41              		.cfi_offset 4, -12
  42              		.cfi_offset 7, -8
  43              		.cfi_offset 14, -4
  44 0002 85B0     		sub	sp, sp, #20
  45              		.cfi_def_cfa_offset 32
  46 0004 00AF     		add	r7, sp, #0
  47              		.cfi_def_cfa_register 7
  48 0006 7860     		str	r0, [r7, #4]
  49 0008 0A00     		movs	r2, r1
  50 000a FB1C     		adds	r3, r7, #3
  51 000c 1A70     		strb	r2, [r3]
  23:app_UART.c    ****     /* make sure the BLE stack is not in low-power mode */
  24:app_UART.c    ****     CyBle_ExitLPM();
  52              		.loc 1 24 0
  53 000e FFF7FEFF 		bl	CyBle_ExitLPM
  25:app_UART.c    **** 
  26:app_UART.c    ****     /* repeat flash write attempt until success */
  27:app_UART.c    **** 
  28:app_UART.c    **** 
  29:app_UART.c    ****         /* write segment of configuration structure from RAM into flash */
  30:app_UART.c    ****         CYBLE_API_RESULT_T result = CyBle_StoreAppData(
  54              		.loc 1 30 0
  55 0012 FB1C     		adds	r3, r7, #3
  56 0014 1A78     		ldrb	r2, [r3]
  57 0016 0E23     		movs	r3, #14
  58 0018 FC18     		adds	r4, r7, r3
  59 001a 0549     		ldr	r1, .L2
  60 001c 7868     		ldr	r0, [r7, #4]
  61 001e 0023     		movs	r3, #0
  62 0020 FFF7FEFF 		bl	CyBle_StoreAppData
  63 0024 0300     		movs	r3, r0
  64 0026 2380     		strh	r3, [r4]
  31:app_UART.c    ****             newData,                    /* uint8 pointer to source data */
  32:app_UART.c    ****             (uint8_t *)&flash_storage,  /* uint8 pointer to const destination */
  33:app_UART.c    ****             length,                     /* number of bytes to write */
  34:app_UART.c    ****             0);                         /* don't force write, but loop will keep retrying */
  35:app_UART.c    **** 
  36:app_UART.c    **** }
  65              		.loc 1 36 0
  66 0028 C046     		nop
  67 002a BD46     		mov	sp, r7
  68 002c 05B0     		add	sp, sp, #20
  69              		@ sp needed
  70 002e 90BD     		pop	{r4, r7, pc}
  71              	.L3:
  72              		.align	2
  73              	.L2:
  74 0030 00000000 		.word	flash_storage
  75              		.cfi_endproc
ARM GAS  C:\Users\BENAKA~1\AppData\Local\Temp\cchf5c2F.s 			page 3


  76              	.LFE36:
  77              		.size	StoreInFlash, .-StoreInFlash
  78              		.section	.text.HandleUartRxTraffic,"ax",%progbits
  79              		.align	2
  80              		.global	HandleUartRxTraffic
  81              		.code	16
  82              		.thumb_func
  83              		.type	HandleUartRxTraffic, %function
  84              	HandleUartRxTraffic:
  85              	.LFB37:
  37:app_UART.c    **** /*******************************************************************************
  38:app_UART.c    **** * Function Name: HandleUartRxTraffic
  39:app_UART.c    **** ********************************************************************************
  40:app_UART.c    **** *
  41:app_UART.c    **** * Summary:
  42:app_UART.c    **** *  This function takes data from received notfications and pushes it to the 
  43:app_UART.c    **** *  UART TX buffer. 
  44:app_UART.c    **** *
  45:app_UART.c    **** * Parameters:
  46:app_UART.c    **** *  CYBLE_GATTC_HANDLE_VALUE_NTF_PARAM_T * - the notification parameter as  
  47:app_UART.c    **** *                                           recieved by the BLE stack
  48:app_UART.c    **** *
  49:app_UART.c    **** * Return:
  50:app_UART.c    **** *   None.
  51:app_UART.c    **** *
  52:app_UART.c    **** *******************************************************************************/
  53:app_UART.c    **** void HandleUartRxTraffic(CYBLE_GATTC_HANDLE_VALUE_NTF_PARAM_T *uartRxDataNotification)
  54:app_UART.c    **** {
  86              		.loc 1 54 0
  87              		.cfi_startproc
  88              		@ args = 0, pretend = 0, frame = 8
  89              		@ frame_needed = 1, uses_anonymous_args = 0
  90 0000 80B5     		push	{r7, lr}
  91              		.cfi_def_cfa_offset 8
  92              		.cfi_offset 7, -8
  93              		.cfi_offset 14, -4
  94 0002 82B0     		sub	sp, sp, #8
  95              		.cfi_def_cfa_offset 16
  96 0004 00AF     		add	r7, sp, #0
  97              		.cfi_def_cfa_register 7
  98 0006 7860     		str	r0, [r7, #4]
  55:app_UART.c    ****     if(uartRxDataNotification->handleValPair.attrHandle == txCharHandle)
  99              		.loc 1 55 0
 100 0008 7B68     		ldr	r3, [r7, #4]
 101 000a 9A89     		ldrh	r2, [r3, #12]
 102 000c 074B     		ldr	r3, .L7
 103 000e 1B88     		ldrh	r3, [r3]
 104 0010 9A42     		cmp	r2, r3
 105 0012 07D1     		bne	.L6
  56:app_UART.c    ****     {
  57:app_UART.c    ****         UART_SpiUartPutArray(uartRxDataNotification->handleValPair.value.val, \
 106              		.loc 1 57 0
 107 0014 7B68     		ldr	r3, [r7, #4]
 108 0016 5A68     		ldr	r2, [r3, #4]
  58:app_UART.c    ****             (uint32) uartRxDataNotification->handleValPair.value.len);
 109              		.loc 1 58 0
 110 0018 7B68     		ldr	r3, [r7, #4]
ARM GAS  C:\Users\BENAKA~1\AppData\Local\Temp\cchf5c2F.s 			page 4


 111 001a 1B89     		ldrh	r3, [r3, #8]
  57:app_UART.c    ****             (uint32) uartRxDataNotification->handleValPair.value.len);
 112              		.loc 1 57 0
 113 001c 1900     		movs	r1, r3
 114 001e 1000     		movs	r0, r2
 115 0020 FFF7FEFF 		bl	UART_SpiUartPutArray
 116              	.L6:
  59:app_UART.c    ****     }
  60:app_UART.c    ****    
  61:app_UART.c    **** }
 117              		.loc 1 61 0
 118 0024 C046     		nop
 119 0026 BD46     		mov	sp, r7
 120 0028 02B0     		add	sp, sp, #8
 121              		@ sp needed
 122 002a 80BD     		pop	{r7, pc}
 123              	.L8:
 124              		.align	2
 125              	.L7:
 126 002c 00000000 		.word	txCharHandle
 127              		.cfi_endproc
 128              	.LFE37:
 129              		.size	HandleUartRxTraffic, .-HandleUartRxTraffic
 130              		.global	WriteArray
 131              		.data
 132              		.align	2
 133              		.type	WriteArray, %object
 134              		.size	WriteArray, 16
 135              	WriteArray:
 136 0000 52       		.byte	82
 137 0001 65       		.byte	101
 138 0002 64       		.byte	100
 139 0003 42       		.byte	66
 140 0004 65       		.byte	101
 141 0005 61       		.byte	97
 142 0006 72       		.byte	114
 143 0007 2C       		.byte	44
 144 0008 30       		.byte	48
 145 0009 30       		.byte	48
 146 000a 30       		.byte	48
 147 000b 30       		.byte	48
 148 000c 30       		.byte	48
 149 000d 30       		.byte	48
 150 000e 30       		.byte	48
 151 000f 25       		.byte	37
 152              		.comm	WriteArray2,16,4
 153              		.comm	WriteArray3,16,4
 154              		.comm	ReadArray,7,4
 155              		.comm	Temp,15,4
 156              		.section	.rodata
 157              		.align	2
 158              	.LC3:
 159 0010 256400   		.ascii	"%d\000"
 160              		.section	.text.HandleUartTxTraffic,"ax",%progbits
 161              		.align	2
 162              		.global	HandleUartTxTraffic
 163              		.code	16
ARM GAS  C:\Users\BENAKA~1\AppData\Local\Temp\cchf5c2F.s 			page 5


 164              		.thumb_func
 165              		.type	HandleUartTxTraffic, %function
 166              	HandleUartTxTraffic:
 167              	.LFB38:
  62:app_UART.c    **** 
  63:app_UART.c    **** 
  64:app_UART.c    **** /*******************************************************************************
  65:app_UART.c    **** * Function Name: HandleUartTxTraffic
  66:app_UART.c    **** ********************************************************************************
  67:app_UART.c    **** *
  68:app_UART.c    **** * Summary:
  69:app_UART.c    **** *  This function takes data from UART RX buffer and pushes it to the server 
  70:app_UART.c    **** *  as Write Without Response command.
  71:app_UART.c    **** *
  72:app_UART.c    **** * Parameters:
  73:app_UART.c    **** *  None.
  74:app_UART.c    **** *
  75:app_UART.c    **** * Return:
  76:app_UART.c    **** *   None.
  77:app_UART.c    **** *
  78:app_UART.c    **** *******************************************************************************/
  79:app_UART.c    **** uint8 WriteArray[16] = { (uint8) 0x52, (uint8) 0x65, (uint8) 0x64, (uint8) 0x42, (uint8) 0x65, (uin
  80:app_UART.c    **** uint8	WriteArray2[16];	
  81:app_UART.c    **** char	WriteArray3[16];
  82:app_UART.c    **** uint8	ReadArray[7];	
  83:app_UART.c    **** uint8   Temp[15];
  84:app_UART.c    **** 
  85:app_UART.c    **** 
  86:app_UART.c    **** void HandleUartTxTraffic(void)
  87:app_UART.c    **** {
 168              		.loc 1 87 0
 169              		.cfi_startproc
 170              		@ args = 0, pretend = 0, frame = 144
 171              		@ frame_needed = 1, uses_anonymous_args = 0
 172 0000 F0B5     		push	{r4, r5, r6, r7, lr}
 173              		.cfi_def_cfa_offset 20
 174              		.cfi_offset 4, -20
 175              		.cfi_offset 5, -16
 176              		.cfi_offset 6, -12
 177              		.cfi_offset 7, -8
 178              		.cfi_offset 14, -4
 179 0002 A5B0     		sub	sp, sp, #148
 180              		.cfi_def_cfa_offset 168
 181 0004 00AF     		add	r7, sp, #0
 182              		.cfi_def_cfa_register 7
 183              		.loc 1 87 0
 184 0006 6B46     		mov	r3, sp
 185 0008 7B60     		str	r3, [r7, #4]
  88:app_UART.c    ****     uint8 WriteArray[16] = { (uint8) 0x52, (uint8) 0x65, (uint8) 0x64, (uint8) 0x42, (uint8) 0x65, 
 186              		.loc 1 88 0
 187 000a 3823     		movs	r3, #56
 188 000c 2022     		movs	r2, #32
 189 000e 9446     		mov	ip, r2
 190 0010 BC44     		add	ip, ip, r7
 191 0012 6344     		add	r3, r3, ip
 192 0014 1800     		movs	r0, r3
 193 0016 1023     		movs	r3, #16
ARM GAS  C:\Users\BENAKA~1\AppData\Local\Temp\cchf5c2F.s 			page 6


 194 0018 1A00     		movs	r2, r3
 195 001a 0021     		movs	r1, #0
 196 001c FFF7FEFF 		bl	memset
 197 0020 3823     		movs	r3, #56
 198 0022 2022     		movs	r2, #32
 199 0024 9446     		mov	ip, r2
 200 0026 BC44     		add	ip, ip, r7
 201 0028 6344     		add	r3, r3, ip
 202 002a 5222     		movs	r2, #82
 203 002c 1A70     		strb	r2, [r3]
 204 002e 3823     		movs	r3, #56
 205 0030 2022     		movs	r2, #32
 206 0032 9446     		mov	ip, r2
 207 0034 BC44     		add	ip, ip, r7
 208 0036 6344     		add	r3, r3, ip
 209 0038 6522     		movs	r2, #101
 210 003a 5A70     		strb	r2, [r3, #1]
 211 003c 3823     		movs	r3, #56
 212 003e 2022     		movs	r2, #32
 213 0040 9446     		mov	ip, r2
 214 0042 BC44     		add	ip, ip, r7
 215 0044 6344     		add	r3, r3, ip
 216 0046 6422     		movs	r2, #100
 217 0048 9A70     		strb	r2, [r3, #2]
 218 004a 3823     		movs	r3, #56
 219 004c 2022     		movs	r2, #32
 220 004e 9446     		mov	ip, r2
 221 0050 BC44     		add	ip, ip, r7
 222 0052 6344     		add	r3, r3, ip
 223 0054 4222     		movs	r2, #66
 224 0056 DA70     		strb	r2, [r3, #3]
 225 0058 3823     		movs	r3, #56
 226 005a 2022     		movs	r2, #32
 227 005c 9446     		mov	ip, r2
 228 005e BC44     		add	ip, ip, r7
 229 0060 6344     		add	r3, r3, ip
 230 0062 6522     		movs	r2, #101
 231 0064 1A71     		strb	r2, [r3, #4]
 232 0066 3823     		movs	r3, #56
 233 0068 2022     		movs	r2, #32
 234 006a 9446     		mov	ip, r2
 235 006c BC44     		add	ip, ip, r7
 236 006e 6344     		add	r3, r3, ip
 237 0070 6122     		movs	r2, #97
 238 0072 5A71     		strb	r2, [r3, #5]
 239 0074 3823     		movs	r3, #56
 240 0076 2022     		movs	r2, #32
 241 0078 9446     		mov	ip, r2
 242 007a BC44     		add	ip, ip, r7
 243 007c 6344     		add	r3, r3, ip
 244 007e 7222     		movs	r2, #114
 245 0080 9A71     		strb	r2, [r3, #6]
 246 0082 3823     		movs	r3, #56
 247 0084 2022     		movs	r2, #32
 248 0086 9446     		mov	ip, r2
 249 0088 BC44     		add	ip, ip, r7
 250 008a 6344     		add	r3, r3, ip
ARM GAS  C:\Users\BENAKA~1\AppData\Local\Temp\cchf5c2F.s 			page 7


 251 008c 2C22     		movs	r2, #44
 252 008e DA71     		strb	r2, [r3, #7]
  89:app_UART.c    ****     uint8   index;
  90:app_UART.c    ****     uint8   uartTxData[mtuSize];
 253              		.loc 1 90 0
 254 0090 E14B     		ldr	r3, .L36
 255 0092 1B88     		ldrh	r3, [r3]
 256 0094 1A00     		movs	r2, r3
 257 0096 013A     		subs	r2, r2, #1
 258 0098 8821     		movs	r1, #136
 259 009a 7918     		adds	r1, r7, r1
 260 009c 0A60     		str	r2, [r1]
 261 009e 3B61     		str	r3, [r7, #16]
 262 00a0 0022     		movs	r2, #0
 263 00a2 7A61     		str	r2, [r7, #20]
 264 00a4 3869     		ldr	r0, [r7, #16]
 265 00a6 7969     		ldr	r1, [r7, #20]
 266 00a8 0200     		movs	r2, r0
 267 00aa 520F     		lsrs	r2, r2, #29
 268 00ac 0E00     		movs	r6, r1
 269 00ae F600     		lsls	r6, r6, #3
 270 00b0 FE61     		str	r6, [r7, #28]
 271 00b2 FE69     		ldr	r6, [r7, #28]
 272 00b4 1643     		orrs	r6, r2
 273 00b6 FE61     		str	r6, [r7, #28]
 274 00b8 0200     		movs	r2, r0
 275 00ba D200     		lsls	r2, r2, #3
 276 00bc BA61     		str	r2, [r7, #24]
 277 00be BB60     		str	r3, [r7, #8]
 278 00c0 0022     		movs	r2, #0
 279 00c2 FA60     		str	r2, [r7, #12]
 280 00c4 B868     		ldr	r0, [r7, #8]
 281 00c6 F968     		ldr	r1, [r7, #12]
 282 00c8 0200     		movs	r2, r0
 283 00ca 520F     		lsrs	r2, r2, #29
 284 00cc 0E00     		movs	r6, r1
 285 00ce F500     		lsls	r5, r6, #3
 286 00d0 1543     		orrs	r5, r2
 287 00d2 0200     		movs	r2, r0
 288 00d4 D400     		lsls	r4, r2, #3
 289 00d6 0733     		adds	r3, r3, #7
 290 00d8 DB08     		lsrs	r3, r3, #3
 291 00da DB00     		lsls	r3, r3, #3
 292 00dc 6A46     		mov	r2, sp
 293 00de D31A     		subs	r3, r2, r3
 294 00e0 9D46     		mov	sp, r3
 295 00e2 6B46     		mov	r3, sp
 296 00e4 0033     		adds	r3, r3, #0
 297 00e6 8422     		movs	r2, #132
 298 00e8 BA18     		adds	r2, r7, r2
 299 00ea 1360     		str	r3, [r2]
  91:app_UART.c    ****     uint16  uartTxDataLength;	
  92:app_UART.c    ****     CYBLE_API_RESULT_T              bleApiResult;
  93:app_UART.c    ****     CYBLE_GATTC_WRITE_CMD_REQ_T     uartTxDataWriteCmd;
  94:app_UART.c    ****     //	Fill Array with values
  95:app_UART.c    ****     extern int count;
  96:app_UART.c    ****     int result = CyBle_GetRssi();
ARM GAS  C:\Users\BENAKA~1\AppData\Local\Temp\cchf5c2F.s 			page 8


 300              		.loc 1 96 0
 301 00ec FFF7FEFF 		bl	CyBle_GetRssi
 302 00f0 0300     		movs	r3, r0
 303 00f2 8022     		movs	r2, #128
 304 00f4 BA18     		adds	r2, r7, r2
 305 00f6 1360     		str	r3, [r2]
  97:app_UART.c    ****     
  98:app_UART.c    ****     long long int   m_z = 0;
 306              		.loc 1 98 0
 307 00f8 0023     		movs	r3, #0
 308 00fa 0024     		movs	r4, #0
 309 00fc BB67     		str	r3, [r7, #120]
 310 00fe FC67     		str	r4, [r7, #124]
  99:app_UART.c    ****     long long int   m_w = 0;
 311              		.loc 1 99 0
 312 0100 0023     		movs	r3, #0
 313 0102 0024     		movs	r4, #0
 314 0104 3B67     		str	r3, [r7, #112]
 315 0106 7C67     		str	r4, [r7, #116]
 100:app_UART.c    ****  //   long long int result = 0;
 101:app_UART.c    ****     char test[16];
 102:app_UART.c    ****     uint8 CountString[8];
 103:app_UART.c    ****     char temp[8];
 104:app_UART.c    ****     int count2 = 5;
 316              		.loc 1 104 0
 317 0108 0523     		movs	r3, #5
 318 010a FB66     		str	r3, [r7, #108]
 105:app_UART.c    ****      //   sprintf(temp,"%d", count2);
 106:app_UART.c    ****     int k;
 107:app_UART.c    ****         for(k=0; k<=8; k++){
 319              		.loc 1 107 0
 320 010c 0023     		movs	r3, #0
 321 010e 8C22     		movs	r2, #140
 322 0110 BA18     		adds	r2, r7, r2
 323 0112 1360     		str	r3, [r2]
 324 0114 DDE0     		b	.L10
 325              	.L22:
 326              	.LBB2:
 108:app_UART.c    ****         char test2 = temp[k];
 327              		.loc 1 108 0
 328 0116 4B23     		movs	r3, #75
 329 0118 2022     		movs	r2, #32
 330 011a 9446     		mov	ip, r2
 331 011c BC44     		add	ip, ip, r7
 332 011e 6344     		add	r3, r3, ip
 333 0120 0C22     		movs	r2, #12
 334 0122 2021     		movs	r1, #32
 335 0124 7918     		adds	r1, r7, r1
 336 0126 8918     		adds	r1, r1, r2
 337 0128 8C22     		movs	r2, #140
 338 012a BA18     		adds	r2, r7, r2
 339 012c 1268     		ldr	r2, [r2]
 340 012e 8A18     		adds	r2, r1, r2
 341 0130 1278     		ldrb	r2, [r2]
 342 0132 1A70     		strb	r2, [r3]
 109:app_UART.c    ****         if (test2 == '0'){
 343              		.loc 1 109 0
ARM GAS  C:\Users\BENAKA~1\AppData\Local\Temp\cchf5c2F.s 			page 9


 344 0134 4B23     		movs	r3, #75
 345 0136 2022     		movs	r2, #32
 346 0138 9446     		mov	ip, r2
 347 013a BC44     		add	ip, ip, r7
 348 013c 6344     		add	r3, r3, ip
 349 013e 1B78     		ldrb	r3, [r3]
 350 0140 302B     		cmp	r3, #48
 351 0142 0AD1     		bne	.L11
 110:app_UART.c    ****         CountString[k] = (uint8) 0x30;
 352              		.loc 1 110 0
 353 0144 1423     		movs	r3, #20
 354 0146 2022     		movs	r2, #32
 355 0148 BA18     		adds	r2, r7, r2
 356 014a D218     		adds	r2, r2, r3
 357 014c 8C23     		movs	r3, #140
 358 014e FB18     		adds	r3, r7, r3
 359 0150 1B68     		ldr	r3, [r3]
 360 0152 D318     		adds	r3, r2, r3
 361 0154 3022     		movs	r2, #48
 362 0156 1A70     		strb	r2, [r3]
 363 0158 B4E0     		b	.L12
 364              	.L11:
 111:app_UART.c    ****         } else if (test2 == '1'){
 365              		.loc 1 111 0
 366 015a 4B23     		movs	r3, #75
 367 015c 2022     		movs	r2, #32
 368 015e 9446     		mov	ip, r2
 369 0160 BC44     		add	ip, ip, r7
 370 0162 6344     		add	r3, r3, ip
 371 0164 1B78     		ldrb	r3, [r3]
 372 0166 312B     		cmp	r3, #49
 373 0168 0AD1     		bne	.L13
 112:app_UART.c    ****         CountString[k] = (uint8) 0x31;   
 374              		.loc 1 112 0
 375 016a 1423     		movs	r3, #20
 376 016c 2022     		movs	r2, #32
 377 016e BA18     		adds	r2, r7, r2
 378 0170 D218     		adds	r2, r2, r3
 379 0172 8C23     		movs	r3, #140
 380 0174 FB18     		adds	r3, r7, r3
 381 0176 1B68     		ldr	r3, [r3]
 382 0178 D318     		adds	r3, r2, r3
 383 017a 3122     		movs	r2, #49
 384 017c 1A70     		strb	r2, [r3]
 385 017e A1E0     		b	.L12
 386              	.L13:
 113:app_UART.c    ****         } else if (test2 == '2'){
 387              		.loc 1 113 0
 388 0180 4B23     		movs	r3, #75
 389 0182 2022     		movs	r2, #32
 390 0184 9446     		mov	ip, r2
 391 0186 BC44     		add	ip, ip, r7
 392 0188 6344     		add	r3, r3, ip
 393 018a 1B78     		ldrb	r3, [r3]
 394 018c 322B     		cmp	r3, #50
 395 018e 0AD1     		bne	.L14
 114:app_UART.c    ****         CountString[k] = (uint8) 0x32;   
ARM GAS  C:\Users\BENAKA~1\AppData\Local\Temp\cchf5c2F.s 			page 10


 396              		.loc 1 114 0
 397 0190 1423     		movs	r3, #20
 398 0192 2022     		movs	r2, #32
 399 0194 BA18     		adds	r2, r7, r2
 400 0196 D218     		adds	r2, r2, r3
 401 0198 8C23     		movs	r3, #140
 402 019a FB18     		adds	r3, r7, r3
 403 019c 1B68     		ldr	r3, [r3]
 404 019e D318     		adds	r3, r2, r3
 405 01a0 3222     		movs	r2, #50
 406 01a2 1A70     		strb	r2, [r3]
 407 01a4 8EE0     		b	.L12
 408              	.L14:
 115:app_UART.c    ****         }else if (test2 == '3'){
 409              		.loc 1 115 0
 410 01a6 4B23     		movs	r3, #75
 411 01a8 2022     		movs	r2, #32
 412 01aa 9446     		mov	ip, r2
 413 01ac BC44     		add	ip, ip, r7
 414 01ae 6344     		add	r3, r3, ip
 415 01b0 1B78     		ldrb	r3, [r3]
 416 01b2 332B     		cmp	r3, #51
 417 01b4 0AD1     		bne	.L15
 116:app_UART.c    ****         CountString[k] = (uint8) 0x33;   
 418              		.loc 1 116 0
 419 01b6 1423     		movs	r3, #20
 420 01b8 2022     		movs	r2, #32
 421 01ba BA18     		adds	r2, r7, r2
 422 01bc D218     		adds	r2, r2, r3
 423 01be 8C23     		movs	r3, #140
 424 01c0 FB18     		adds	r3, r7, r3
 425 01c2 1B68     		ldr	r3, [r3]
 426 01c4 D318     		adds	r3, r2, r3
 427 01c6 3322     		movs	r2, #51
 428 01c8 1A70     		strb	r2, [r3]
 429 01ca 7BE0     		b	.L12
 430              	.L15:
 117:app_UART.c    ****         }else if (test2 == '4'){
 431              		.loc 1 117 0
 432 01cc 4B23     		movs	r3, #75
 433 01ce 2022     		movs	r2, #32
 434 01d0 9446     		mov	ip, r2
 435 01d2 BC44     		add	ip, ip, r7
 436 01d4 6344     		add	r3, r3, ip
 437 01d6 1B78     		ldrb	r3, [r3]
 438 01d8 342B     		cmp	r3, #52
 439 01da 0AD1     		bne	.L16
 118:app_UART.c    ****         CountString[k] = (uint8) 0x34;   
 440              		.loc 1 118 0
 441 01dc 1423     		movs	r3, #20
 442 01de 2022     		movs	r2, #32
 443 01e0 BA18     		adds	r2, r7, r2
 444 01e2 D218     		adds	r2, r2, r3
 445 01e4 8C23     		movs	r3, #140
 446 01e6 FB18     		adds	r3, r7, r3
 447 01e8 1B68     		ldr	r3, [r3]
 448 01ea D318     		adds	r3, r2, r3
ARM GAS  C:\Users\BENAKA~1\AppData\Local\Temp\cchf5c2F.s 			page 11


 449 01ec 3422     		movs	r2, #52
 450 01ee 1A70     		strb	r2, [r3]
 451 01f0 68E0     		b	.L12
 452              	.L16:
 119:app_UART.c    ****         }else if (test2 == '5'){
 453              		.loc 1 119 0
 454 01f2 4B23     		movs	r3, #75
 455 01f4 2022     		movs	r2, #32
 456 01f6 9446     		mov	ip, r2
 457 01f8 BC44     		add	ip, ip, r7
 458 01fa 6344     		add	r3, r3, ip
 459 01fc 1B78     		ldrb	r3, [r3]
 460 01fe 352B     		cmp	r3, #53
 461 0200 0AD1     		bne	.L17
 120:app_UART.c    ****         CountString[k] = (uint8) 0x35;   
 462              		.loc 1 120 0
 463 0202 1423     		movs	r3, #20
 464 0204 2022     		movs	r2, #32
 465 0206 BA18     		adds	r2, r7, r2
 466 0208 D218     		adds	r2, r2, r3
 467 020a 8C23     		movs	r3, #140
 468 020c FB18     		adds	r3, r7, r3
 469 020e 1B68     		ldr	r3, [r3]
 470 0210 D318     		adds	r3, r2, r3
 471 0212 3522     		movs	r2, #53
 472 0214 1A70     		strb	r2, [r3]
 473 0216 55E0     		b	.L12
 474              	.L17:
 121:app_UART.c    ****         }else if (test2 == '6'){
 475              		.loc 1 121 0
 476 0218 4B23     		movs	r3, #75
 477 021a 2022     		movs	r2, #32
 478 021c 9446     		mov	ip, r2
 479 021e BC44     		add	ip, ip, r7
 480 0220 6344     		add	r3, r3, ip
 481 0222 1B78     		ldrb	r3, [r3]
 482 0224 362B     		cmp	r3, #54
 483 0226 0AD1     		bne	.L18
 122:app_UART.c    ****         CountString[k] = (uint8) 0x36;   
 484              		.loc 1 122 0
 485 0228 1423     		movs	r3, #20
 486 022a 2022     		movs	r2, #32
 487 022c BA18     		adds	r2, r7, r2
 488 022e D218     		adds	r2, r2, r3
 489 0230 8C23     		movs	r3, #140
 490 0232 FB18     		adds	r3, r7, r3
 491 0234 1B68     		ldr	r3, [r3]
 492 0236 D318     		adds	r3, r2, r3
 493 0238 3622     		movs	r2, #54
 494 023a 1A70     		strb	r2, [r3]
 495 023c 42E0     		b	.L12
 496              	.L18:
 123:app_UART.c    ****         }else if (test2 == '7'){
 497              		.loc 1 123 0
 498 023e 4B23     		movs	r3, #75
 499 0240 2022     		movs	r2, #32
 500 0242 9446     		mov	ip, r2
ARM GAS  C:\Users\BENAKA~1\AppData\Local\Temp\cchf5c2F.s 			page 12


 501 0244 BC44     		add	ip, ip, r7
 502 0246 6344     		add	r3, r3, ip
 503 0248 1B78     		ldrb	r3, [r3]
 504 024a 372B     		cmp	r3, #55
 505 024c 0AD1     		bne	.L19
 124:app_UART.c    ****         CountString[k] = (uint8) 0x37;   
 506              		.loc 1 124 0
 507 024e 1423     		movs	r3, #20
 508 0250 2022     		movs	r2, #32
 509 0252 BA18     		adds	r2, r7, r2
 510 0254 D218     		adds	r2, r2, r3
 511 0256 8C23     		movs	r3, #140
 512 0258 FB18     		adds	r3, r7, r3
 513 025a 1B68     		ldr	r3, [r3]
 514 025c D318     		adds	r3, r2, r3
 515 025e 3722     		movs	r2, #55
 516 0260 1A70     		strb	r2, [r3]
 517 0262 2FE0     		b	.L12
 518              	.L19:
 125:app_UART.c    ****         }else if (test2 == '8'){
 519              		.loc 1 125 0
 520 0264 4B23     		movs	r3, #75
 521 0266 2022     		movs	r2, #32
 522 0268 9446     		mov	ip, r2
 523 026a BC44     		add	ip, ip, r7
 524 026c 6344     		add	r3, r3, ip
 525 026e 1B78     		ldrb	r3, [r3]
 526 0270 382B     		cmp	r3, #56
 527 0272 0AD1     		bne	.L20
 126:app_UART.c    ****         CountString[k] = (uint8) 0x38;   
 528              		.loc 1 126 0
 529 0274 1423     		movs	r3, #20
 530 0276 2022     		movs	r2, #32
 531 0278 BA18     		adds	r2, r7, r2
 532 027a D218     		adds	r2, r2, r3
 533 027c 8C23     		movs	r3, #140
 534 027e FB18     		adds	r3, r7, r3
 535 0280 1B68     		ldr	r3, [r3]
 536 0282 D318     		adds	r3, r2, r3
 537 0284 3822     		movs	r2, #56
 538 0286 1A70     		strb	r2, [r3]
 539 0288 1CE0     		b	.L12
 540              	.L20:
 127:app_UART.c    ****         }else if (test2 == '9'){
 541              		.loc 1 127 0
 542 028a 4B23     		movs	r3, #75
 543 028c 2022     		movs	r2, #32
 544 028e 9446     		mov	ip, r2
 545 0290 BC44     		add	ip, ip, r7
 546 0292 6344     		add	r3, r3, ip
 547 0294 1B78     		ldrb	r3, [r3]
 548 0296 392B     		cmp	r3, #57
 549 0298 0AD1     		bne	.L21
 128:app_UART.c    ****         CountString[k] = (uint8) 0x39;   
 550              		.loc 1 128 0
 551 029a 1423     		movs	r3, #20
 552 029c 2022     		movs	r2, #32
ARM GAS  C:\Users\BENAKA~1\AppData\Local\Temp\cchf5c2F.s 			page 13


 553 029e BA18     		adds	r2, r7, r2
 554 02a0 D218     		adds	r2, r2, r3
 555 02a2 8C23     		movs	r3, #140
 556 02a4 FB18     		adds	r3, r7, r3
 557 02a6 1B68     		ldr	r3, [r3]
 558 02a8 D318     		adds	r3, r2, r3
 559 02aa 3922     		movs	r2, #57
 560 02ac 1A70     		strb	r2, [r3]
 561 02ae 09E0     		b	.L12
 562              	.L21:
 129:app_UART.c    ****         } else
 130:app_UART.c    ****         CountString[k] = (uint8) 0x40;
 563              		.loc 1 130 0
 564 02b0 1423     		movs	r3, #20
 565 02b2 2022     		movs	r2, #32
 566 02b4 BA18     		adds	r2, r7, r2
 567 02b6 D218     		adds	r2, r2, r3
 568 02b8 8C23     		movs	r3, #140
 569 02ba FB18     		adds	r3, r7, r3
 570 02bc 1B68     		ldr	r3, [r3]
 571 02be D318     		adds	r3, r2, r3
 572 02c0 4022     		movs	r2, #64
 573 02c2 1A70     		strb	r2, [r3]
 574              	.L12:
 575              	.LBE2:
 107:app_UART.c    ****         char test2 = temp[k];
 576              		.loc 1 107 0 discriminator 2
 577 02c4 8C23     		movs	r3, #140
 578 02c6 FB18     		adds	r3, r7, r3
 579 02c8 1B68     		ldr	r3, [r3]
 580 02ca 0133     		adds	r3, r3, #1
 581 02cc 8C22     		movs	r2, #140
 582 02ce BA18     		adds	r2, r7, r2
 583 02d0 1360     		str	r3, [r2]
 584              	.L10:
 107:app_UART.c    ****         char test2 = temp[k];
 585              		.loc 1 107 0 is_stmt 0 discriminator 1
 586 02d2 8C23     		movs	r3, #140
 587 02d4 FB18     		adds	r3, r7, r3
 588 02d6 1B68     		ldr	r3, [r3]
 589 02d8 082B     		cmp	r3, #8
 590 02da 00DC     		bgt	.LCB499
 591 02dc 1BE7     		b	.L22	@long jump
 592              	.LCB499:
 131:app_UART.c    ****         }
 132:app_UART.c    ****     char resultString[7]; //= {1,2,3,4,5,6,7};
 133:app_UART.c    **** 
 134:app_UART.c    ****     StoreInFlash(CountString,16);
 593              		.loc 1 134 0 is_stmt 1
 594 02de 1423     		movs	r3, #20
 595 02e0 2022     		movs	r2, #32
 596 02e2 9446     		mov	ip, r2
 597 02e4 BC44     		add	ip, ip, r7
 598 02e6 6344     		add	r3, r3, ip
 599 02e8 1021     		movs	r1, #16
 600 02ea 1800     		movs	r0, r3
 601 02ec FFF7FEFF 		bl	StoreInFlash
ARM GAS  C:\Users\BENAKA~1\AppData\Local\Temp\cchf5c2F.s 			page 14


 135:app_UART.c    ****     //memcpy(WriteArray2, flash_storage,16);
 136:app_UART.c    ****     //if (WriteArray2[0] == (uint8) 0x35){
 137:app_UART.c    ****       //     WriteArray3[0] = 11;
 138:app_UART.c    ****    // }
 139:app_UART.c    ****   //  m_z = (36969 * (int)WriteArray3[0-(strlen(WriteArray3)-1)]) * ((m_z) + 65535) + (m_z >> 16);
 140:app_UART.c    ****    // m_w = (18000 * (int)WriteArray3[0-(strlen(WriteArray3)-1)]) * ((m_w) + 65535) + (m_w >> 16);
 141:app_UART.c    ****    // result = ((m_z << 16) + m_w) % 7123489;
 142:app_UART.c    ****  //   WriteArray[8] = (uint8) 0x33;
 143:app_UART.c    ****     sprintf(resultString,"%d", result);
 602              		.loc 1 143 0
 603 02f0 8023     		movs	r3, #128
 604 02f2 FB18     		adds	r3, r7, r3
 605 02f4 1A68     		ldr	r2, [r3]
 606 02f6 4949     		ldr	r1, .L36+4
 607 02f8 2423     		movs	r3, #36
 608 02fa FB18     		adds	r3, r7, r3
 609 02fc 1800     		movs	r0, r3
 610 02fe FFF7FEFF 		bl	sprintf
 144:app_UART.c    **** 
 145:app_UART.c    ****       for(k=0; k<=8; k++){
 611              		.loc 1 145 0
 612 0302 0023     		movs	r3, #0
 613 0304 8C22     		movs	r2, #140
 614 0306 BA18     		adds	r2, r7, r2
 615 0308 1360     		str	r3, [r2]
 616 030a EBE0     		b	.L23
 617              	.L35:
 618              	.LBB3:
 146:app_UART.c    ****         char test = resultString[k];
 619              		.loc 1 146 0
 620 030c 4A23     		movs	r3, #74
 621 030e 2022     		movs	r2, #32
 622 0310 9446     		mov	ip, r2
 623 0312 BC44     		add	ip, ip, r7
 624 0314 6344     		add	r3, r3, ip
 625 0316 2422     		movs	r2, #36
 626 0318 B918     		adds	r1, r7, r2
 627 031a 8C22     		movs	r2, #140
 628 031c BA18     		adds	r2, r7, r2
 629 031e 1268     		ldr	r2, [r2]
 630 0320 8A18     		adds	r2, r1, r2
 631 0322 1278     		ldrb	r2, [r2]
 632 0324 1A70     		strb	r2, [r3]
 147:app_UART.c    ****         if (test == '0'){
 633              		.loc 1 147 0
 634 0326 4A23     		movs	r3, #74
 635 0328 2022     		movs	r2, #32
 636 032a 9446     		mov	ip, r2
 637 032c BC44     		add	ip, ip, r7
 638 032e 6344     		add	r3, r3, ip
 639 0330 1B78     		ldrb	r3, [r3]
 640 0332 302B     		cmp	r3, #48
 641 0334 0BD1     		bne	.L24
 148:app_UART.c    ****         WriteArray[(8+k)] = (uint8) 0x30;
 642              		.loc 1 148 0
 643 0336 8C23     		movs	r3, #140
 644 0338 FB18     		adds	r3, r7, r3
ARM GAS  C:\Users\BENAKA~1\AppData\Local\Temp\cchf5c2F.s 			page 15


 645 033a 1B68     		ldr	r3, [r3]
 646 033c 0833     		adds	r3, r3, #8
 647 033e 3822     		movs	r2, #56
 648 0340 2021     		movs	r1, #32
 649 0342 8C46     		mov	ip, r1
 650 0344 BC44     		add	ip, ip, r7
 651 0346 6244     		add	r2, r2, ip
 652 0348 3021     		movs	r1, #48
 653 034a D154     		strb	r1, [r2, r3]
 654 034c C3E0     		b	.L25
 655              	.L24:
 149:app_UART.c    ****         } else if (test == '1'){
 656              		.loc 1 149 0
 657 034e 4A23     		movs	r3, #74
 658 0350 2022     		movs	r2, #32
 659 0352 9446     		mov	ip, r2
 660 0354 BC44     		add	ip, ip, r7
 661 0356 6344     		add	r3, r3, ip
 662 0358 1B78     		ldrb	r3, [r3]
 663 035a 312B     		cmp	r3, #49
 664 035c 0BD1     		bne	.L26
 150:app_UART.c    ****         WriteArray[(8+k)] = (uint8) 0x31;   
 665              		.loc 1 150 0
 666 035e 8C23     		movs	r3, #140
 667 0360 FB18     		adds	r3, r7, r3
 668 0362 1B68     		ldr	r3, [r3]
 669 0364 0833     		adds	r3, r3, #8
 670 0366 3822     		movs	r2, #56
 671 0368 2021     		movs	r1, #32
 672 036a 8C46     		mov	ip, r1
 673 036c BC44     		add	ip, ip, r7
 674 036e 6244     		add	r2, r2, ip
 675 0370 3121     		movs	r1, #49
 676 0372 D154     		strb	r1, [r2, r3]
 677 0374 AFE0     		b	.L25
 678              	.L26:
 151:app_UART.c    ****         } else if (test == '2'){
 679              		.loc 1 151 0
 680 0376 4A23     		movs	r3, #74
 681 0378 2022     		movs	r2, #32
 682 037a 9446     		mov	ip, r2
 683 037c BC44     		add	ip, ip, r7
 684 037e 6344     		add	r3, r3, ip
 685 0380 1B78     		ldrb	r3, [r3]
 686 0382 322B     		cmp	r3, #50
 687 0384 0BD1     		bne	.L27
 152:app_UART.c    ****         WriteArray[(8+k)] = (uint8) 0x32;   
 688              		.loc 1 152 0
 689 0386 8C23     		movs	r3, #140
 690 0388 FB18     		adds	r3, r7, r3
 691 038a 1B68     		ldr	r3, [r3]
 692 038c 0833     		adds	r3, r3, #8
 693 038e 3822     		movs	r2, #56
 694 0390 2021     		movs	r1, #32
 695 0392 8C46     		mov	ip, r1
 696 0394 BC44     		add	ip, ip, r7
 697 0396 6244     		add	r2, r2, ip
ARM GAS  C:\Users\BENAKA~1\AppData\Local\Temp\cchf5c2F.s 			page 16


 698 0398 3221     		movs	r1, #50
 699 039a D154     		strb	r1, [r2, r3]
 700 039c 9BE0     		b	.L25
 701              	.L27:
 153:app_UART.c    ****         }else if (test == '3'){
 702              		.loc 1 153 0
 703 039e 4A23     		movs	r3, #74
 704 03a0 2022     		movs	r2, #32
 705 03a2 9446     		mov	ip, r2
 706 03a4 BC44     		add	ip, ip, r7
 707 03a6 6344     		add	r3, r3, ip
 708 03a8 1B78     		ldrb	r3, [r3]
 709 03aa 332B     		cmp	r3, #51
 710 03ac 0BD1     		bne	.L28
 154:app_UART.c    ****         WriteArray[(8+k)] = (uint8) 0x33;   
 711              		.loc 1 154 0
 712 03ae 8C23     		movs	r3, #140
 713 03b0 FB18     		adds	r3, r7, r3
 714 03b2 1B68     		ldr	r3, [r3]
 715 03b4 0833     		adds	r3, r3, #8
 716 03b6 3822     		movs	r2, #56
 717 03b8 2021     		movs	r1, #32
 718 03ba 8C46     		mov	ip, r1
 719 03bc BC44     		add	ip, ip, r7
 720 03be 6244     		add	r2, r2, ip
 721 03c0 3321     		movs	r1, #51
 722 03c2 D154     		strb	r1, [r2, r3]
 723 03c4 87E0     		b	.L25
 724              	.L28:
 155:app_UART.c    ****         }else if (test == '4'){
 725              		.loc 1 155 0
 726 03c6 4A23     		movs	r3, #74
 727 03c8 2022     		movs	r2, #32
 728 03ca 9446     		mov	ip, r2
 729 03cc BC44     		add	ip, ip, r7
 730 03ce 6344     		add	r3, r3, ip
 731 03d0 1B78     		ldrb	r3, [r3]
 732 03d2 342B     		cmp	r3, #52
 733 03d4 0BD1     		bne	.L29
 156:app_UART.c    ****         WriteArray[(8+k)] = (uint8) 0x34;   
 734              		.loc 1 156 0
 735 03d6 8C23     		movs	r3, #140
 736 03d8 FB18     		adds	r3, r7, r3
 737 03da 1B68     		ldr	r3, [r3]
 738 03dc 0833     		adds	r3, r3, #8
 739 03de 3822     		movs	r2, #56
 740 03e0 2021     		movs	r1, #32
 741 03e2 8C46     		mov	ip, r1
 742 03e4 BC44     		add	ip, ip, r7
 743 03e6 6244     		add	r2, r2, ip
 744 03e8 3421     		movs	r1, #52
 745 03ea D154     		strb	r1, [r2, r3]
 746 03ec 73E0     		b	.L25
 747              	.L29:
 157:app_UART.c    ****         }else if (test == '5'){
 748              		.loc 1 157 0
 749 03ee 4A23     		movs	r3, #74
ARM GAS  C:\Users\BENAKA~1\AppData\Local\Temp\cchf5c2F.s 			page 17


 750 03f0 2022     		movs	r2, #32
 751 03f2 9446     		mov	ip, r2
 752 03f4 BC44     		add	ip, ip, r7
 753 03f6 6344     		add	r3, r3, ip
 754 03f8 1B78     		ldrb	r3, [r3]
 755 03fa 352B     		cmp	r3, #53
 756 03fc 10D1     		bne	.L30
 158:app_UART.c    ****         WriteArray[(8+k)] = (uint8) 0x35;   
 757              		.loc 1 158 0
 758 03fe 8C23     		movs	r3, #140
 759 0400 FB18     		adds	r3, r7, r3
 760 0402 1B68     		ldr	r3, [r3]
 761 0404 0833     		adds	r3, r3, #8
 762 0406 3822     		movs	r2, #56
 763 0408 2021     		movs	r1, #32
 764 040a 8C46     		mov	ip, r1
 765 040c BC44     		add	ip, ip, r7
 766 040e 6244     		add	r2, r2, ip
 767 0410 3521     		movs	r1, #53
 768 0412 D154     		strb	r1, [r2, r3]
 769 0414 5FE0     		b	.L25
 770              	.L37:
 771 0416 C046     		.align	2
 772              	.L36:
 773 0418 00000000 		.word	mtuSize
 774 041c 10000000 		.word	.LC3
 775              	.L30:
 159:app_UART.c    ****         }else if (test == '6'){
 776              		.loc 1 159 0
 777 0420 4A23     		movs	r3, #74
 778 0422 2022     		movs	r2, #32
 779 0424 9446     		mov	ip, r2
 780 0426 BC44     		add	ip, ip, r7
 781 0428 6344     		add	r3, r3, ip
 782 042a 1B78     		ldrb	r3, [r3]
 783 042c 362B     		cmp	r3, #54
 784 042e 0BD1     		bne	.L31
 160:app_UART.c    ****         WriteArray[(8+k)] = (uint8) 0x36;   
 785              		.loc 1 160 0
 786 0430 8C23     		movs	r3, #140
 787 0432 FB18     		adds	r3, r7, r3
 788 0434 1B68     		ldr	r3, [r3]
 789 0436 0833     		adds	r3, r3, #8
 790 0438 3822     		movs	r2, #56
 791 043a 2021     		movs	r1, #32
 792 043c 8C46     		mov	ip, r1
 793 043e BC44     		add	ip, ip, r7
 794 0440 6244     		add	r2, r2, ip
 795 0442 3621     		movs	r1, #54
 796 0444 D154     		strb	r1, [r2, r3]
 797 0446 46E0     		b	.L25
 798              	.L31:
 161:app_UART.c    ****         }else if (test == '7'){
 799              		.loc 1 161 0
 800 0448 4A23     		movs	r3, #74
 801 044a 2022     		movs	r2, #32
 802 044c 9446     		mov	ip, r2
ARM GAS  C:\Users\BENAKA~1\AppData\Local\Temp\cchf5c2F.s 			page 18


 803 044e BC44     		add	ip, ip, r7
 804 0450 6344     		add	r3, r3, ip
 805 0452 1B78     		ldrb	r3, [r3]
 806 0454 372B     		cmp	r3, #55
 807 0456 0BD1     		bne	.L32
 162:app_UART.c    ****         WriteArray[(8+k)] = (uint8) 0x37;   
 808              		.loc 1 162 0
 809 0458 8C23     		movs	r3, #140
 810 045a FB18     		adds	r3, r7, r3
 811 045c 1B68     		ldr	r3, [r3]
 812 045e 0833     		adds	r3, r3, #8
 813 0460 3822     		movs	r2, #56
 814 0462 2021     		movs	r1, #32
 815 0464 8C46     		mov	ip, r1
 816 0466 BC44     		add	ip, ip, r7
 817 0468 6244     		add	r2, r2, ip
 818 046a 3721     		movs	r1, #55
 819 046c D154     		strb	r1, [r2, r3]
 820 046e 32E0     		b	.L25
 821              	.L32:
 163:app_UART.c    ****         }else if (test == '8'){
 822              		.loc 1 163 0
 823 0470 4A23     		movs	r3, #74
 824 0472 2022     		movs	r2, #32
 825 0474 9446     		mov	ip, r2
 826 0476 BC44     		add	ip, ip, r7
 827 0478 6344     		add	r3, r3, ip
 828 047a 1B78     		ldrb	r3, [r3]
 829 047c 382B     		cmp	r3, #56
 830 047e 0BD1     		bne	.L33
 164:app_UART.c    ****         WriteArray[(8+k)] = (uint8) 0x38;   
 831              		.loc 1 164 0
 832 0480 8C23     		movs	r3, #140
 833 0482 FB18     		adds	r3, r7, r3
 834 0484 1B68     		ldr	r3, [r3]
 835 0486 0833     		adds	r3, r3, #8
 836 0488 3822     		movs	r2, #56
 837 048a 2021     		movs	r1, #32
 838 048c 8C46     		mov	ip, r1
 839 048e BC44     		add	ip, ip, r7
 840 0490 6244     		add	r2, r2, ip
 841 0492 3821     		movs	r1, #56
 842 0494 D154     		strb	r1, [r2, r3]
 843 0496 1EE0     		b	.L25
 844              	.L33:
 165:app_UART.c    ****         }else if (test == '9'){
 845              		.loc 1 165 0
 846 0498 4A23     		movs	r3, #74
 847 049a 2022     		movs	r2, #32
 848 049c 9446     		mov	ip, r2
 849 049e BC44     		add	ip, ip, r7
 850 04a0 6344     		add	r3, r3, ip
 851 04a2 1B78     		ldrb	r3, [r3]
 852 04a4 392B     		cmp	r3, #57
 853 04a6 0BD1     		bne	.L34
 166:app_UART.c    ****         WriteArray[(8+k)] = (uint8) 0x39;   
 854              		.loc 1 166 0
ARM GAS  C:\Users\BENAKA~1\AppData\Local\Temp\cchf5c2F.s 			page 19


 855 04a8 8C23     		movs	r3, #140
 856 04aa FB18     		adds	r3, r7, r3
 857 04ac 1B68     		ldr	r3, [r3]
 858 04ae 0833     		adds	r3, r3, #8
 859 04b0 3822     		movs	r2, #56
 860 04b2 2021     		movs	r1, #32
 861 04b4 8C46     		mov	ip, r1
 862 04b6 BC44     		add	ip, ip, r7
 863 04b8 6244     		add	r2, r2, ip
 864 04ba 3921     		movs	r1, #57
 865 04bc D154     		strb	r1, [r2, r3]
 866 04be 0AE0     		b	.L25
 867              	.L34:
 167:app_UART.c    ****         } else
 168:app_UART.c    ****         WriteArray[(8+k)] = (uint8) 0x40;
 868              		.loc 1 168 0
 869 04c0 8C23     		movs	r3, #140
 870 04c2 FB18     		adds	r3, r7, r3
 871 04c4 1B68     		ldr	r3, [r3]
 872 04c6 0833     		adds	r3, r3, #8
 873 04c8 3822     		movs	r2, #56
 874 04ca 2021     		movs	r1, #32
 875 04cc 8C46     		mov	ip, r1
 876 04ce BC44     		add	ip, ip, r7
 877 04d0 6244     		add	r2, r2, ip
 878 04d2 4021     		movs	r1, #64
 879 04d4 D154     		strb	r1, [r2, r3]
 880              	.L25:
 881              	.LBE3:
 145:app_UART.c    ****         char test = resultString[k];
 882              		.loc 1 145 0 discriminator 2
 883 04d6 8C23     		movs	r3, #140
 884 04d8 FB18     		adds	r3, r7, r3
 885 04da 1B68     		ldr	r3, [r3]
 886 04dc 0133     		adds	r3, r3, #1
 887 04de 8C22     		movs	r2, #140
 888 04e0 BA18     		adds	r2, r7, r2
 889 04e2 1360     		str	r3, [r2]
 890              	.L23:
 145:app_UART.c    ****         char test = resultString[k];
 891              		.loc 1 145 0 is_stmt 0 discriminator 1
 892 04e4 8C23     		movs	r3, #140
 893 04e6 FB18     		adds	r3, r7, r3
 894 04e8 1B68     		ldr	r3, [r3]
 895 04ea 082B     		cmp	r3, #8
 896 04ec 00DC     		bgt	.LCB802
 897 04ee 0DE7     		b	.L35	@long jump
 898              	.LCB802:
 169:app_UART.c    ****     }
 170:app_UART.c    ****     
 171:app_UART.c    **** //    StoreInFlash(WriteArray, 16);
 172:app_UART.c    **** 
 173:app_UART.c    **** //    memcpy(flash_storage,WriteArray2, 16);
 174:app_UART.c    **** 
 175:app_UART.c    **** 
 176:app_UART.c    ****     uartTxDataWriteCmd.value.len  = 20;
 899              		.loc 1 176 0 is_stmt 1
ARM GAS  C:\Users\BENAKA~1\AppData\Local\Temp\cchf5c2F.s 			page 20


 900 04f0 2C23     		movs	r3, #44
 901 04f2 2022     		movs	r2, #32
 902 04f4 9446     		mov	ip, r2
 903 04f6 BC44     		add	ip, ip, r7
 904 04f8 6344     		add	r3, r3, ip
 905 04fa 1422     		movs	r2, #20
 906 04fc 9A80     		strh	r2, [r3, #4]
 177:app_UART.c    ****     uartTxDataWriteCmd.attrHandle = rxCharHandle;
 907              		.loc 1 177 0
 908 04fe 164B     		ldr	r3, .L38
 909 0500 1A88     		ldrh	r2, [r3]
 910 0502 2C23     		movs	r3, #44
 911 0504 2021     		movs	r1, #32
 912 0506 8C46     		mov	ip, r1
 913 0508 BC44     		add	ip, ip, r7
 914 050a 6344     		add	r3, r3, ip
 915 050c 1A81     		strh	r2, [r3, #8]
 178:app_UART.c    ****     uartTxDataWriteCmd.value.val  = WriteArray;          
 916              		.loc 1 178 0
 917 050e 2C23     		movs	r3, #44
 918 0510 2022     		movs	r2, #32
 919 0512 9446     		mov	ip, r2
 920 0514 BC44     		add	ip, ip, r7
 921 0516 6344     		add	r3, r3, ip
 922 0518 3822     		movs	r2, #56
 923 051a 2021     		movs	r1, #32
 924 051c 8C46     		mov	ip, r1
 925 051e BC44     		add	ip, ip, r7
 926 0520 6244     		add	r2, r2, ip
 927 0522 1A60     		str	r2, [r3]
 179:app_UART.c    **** 
 180:app_UART.c    ****     CyBle_GattcWriteWithoutResponse(cyBle_connHandle, &uartTxDataWriteCmd);
 928              		.loc 1 180 0
 929 0524 2C23     		movs	r3, #44
 930 0526 2022     		movs	r2, #32
 931 0528 BA18     		adds	r2, r7, r2
 932 052a D118     		adds	r1, r2, r3
 933 052c 0B4B     		ldr	r3, .L38+4
 934 052e 1A78     		ldrb	r2, [r3]
 935 0530 5B78     		ldrb	r3, [r3, #1]
 936 0532 1B02     		lsls	r3, r3, #8
 937 0534 1A43     		orrs	r2, r3
 938 0536 0023     		movs	r3, #0
 939 0538 1204     		lsls	r2, r2, #16
 940 053a 120C     		lsrs	r2, r2, #16
 941 053c 1B0C     		lsrs	r3, r3, #16
 942 053e 1B04     		lsls	r3, r3, #16
 943 0540 1343     		orrs	r3, r2
 944 0542 1800     		movs	r0, r3
 945 0544 FFF7FEFF 		bl	CyBle_GattcWriteWithoutResponse
 181:app_UART.c    ****     CyBle_ProcessEvents();
 946              		.loc 1 181 0
 947 0548 FFF7FEFF 		bl	CyBle_ProcessEvents
 948 054c 7B68     		ldr	r3, [r7, #4]
 949 054e 9D46     		mov	sp, r3
 182:app_UART.c    **** 
 183:app_UART.c    **** 
ARM GAS  C:\Users\BENAKA~1\AppData\Local\Temp\cchf5c2F.s 			page 21


 184:app_UART.c    ****    
 185:app_UART.c    **** }
 950              		.loc 1 185 0
 951 0550 C046     		nop
 952 0552 BD46     		mov	sp, r7
 953 0554 25B0     		add	sp, sp, #148
 954              		@ sp needed
 955 0556 F0BD     		pop	{r4, r5, r6, r7, pc}
 956              	.L39:
 957              		.align	2
 958              	.L38:
 959 0558 00000000 		.word	rxCharHandle
 960 055c 00000000 		.word	cyBle_connHandle
 961              		.cfi_endproc
 962              	.LFE38:
 963              		.size	HandleUartTxTraffic, .-HandleUartTxTraffic
 964              		.section	.text.DisableUartRxInt,"ax",%progbits
 965              		.align	2
 966              		.global	DisableUartRxInt
 967              		.code	16
 968              		.thumb_func
 969              		.type	DisableUartRxInt, %function
 970              	DisableUartRxInt:
 971              	.LFB39:
 186:app_UART.c    **** 
 187:app_UART.c    **** 
 188:app_UART.c    **** 
 189:app_UART.c    **** 
 190:app_UART.c    **** /*****************************************************************************************
 191:app_UART.c    **** * Function Name: DisableUartRxInt
 192:app_UART.c    **** ******************************************************************************************
 193:app_UART.c    **** *
 194:app_UART.c    **** * Summary:
 195:app_UART.c    **** *  This function disables the UART RX interrupt.
 196:app_UART.c    **** *
 197:app_UART.c    **** * Parameters:
 198:app_UART.c    **** *   None.
 199:app_UART.c    **** *
 200:app_UART.c    **** * Return:
 201:app_UART.c    **** *   None.
 202:app_UART.c    **** *
 203:app_UART.c    **** *****************************************************************************************/
 204:app_UART.c    **** void DisableUartRxInt(void)
 205:app_UART.c    **** {
 972              		.loc 1 205 0
 973              		.cfi_startproc
 974              		@ args = 0, pretend = 0, frame = 0
 975              		@ frame_needed = 1, uses_anonymous_args = 0
 976 0000 80B5     		push	{r7, lr}
 977              		.cfi_def_cfa_offset 8
 978              		.cfi_offset 7, -8
 979              		.cfi_offset 14, -4
 980 0002 00AF     		add	r7, sp, #0
 981              		.cfi_def_cfa_register 7
 206:app_UART.c    ****     UART_INTR_RX_MASK_REG &= ~UART_RX_INTR_MASK;  
 982              		.loc 1 206 0
 983 0004 044B     		ldr	r3, .L41
ARM GAS  C:\Users\BENAKA~1\AppData\Local\Temp\cchf5c2F.s 			page 22


 984 0006 044A     		ldr	r2, .L41
 985 0008 1268     		ldr	r2, [r2]
 986 000a 0421     		movs	r1, #4
 987 000c 8A43     		bics	r2, r1
 988 000e 1A60     		str	r2, [r3]
 207:app_UART.c    **** }
 989              		.loc 1 207 0
 990 0010 C046     		nop
 991 0012 BD46     		mov	sp, r7
 992              		@ sp needed
 993 0014 80BD     		pop	{r7, pc}
 994              	.L42:
 995 0016 C046     		.align	2
 996              	.L41:
 997 0018 C80F2440 		.word	1076105160
 998              		.cfi_endproc
 999              	.LFE39:
 1000              		.size	DisableUartRxInt, .-DisableUartRxInt
 1001              		.section	.text.EnableUartRxInt,"ax",%progbits
 1002              		.align	2
 1003              		.global	EnableUartRxInt
 1004              		.code	16
 1005              		.thumb_func
 1006              		.type	EnableUartRxInt, %function
 1007              	EnableUartRxInt:
 1008              	.LFB40:
 208:app_UART.c    **** 
 209:app_UART.c    **** /*****************************************************************************************
 210:app_UART.c    **** * Function Name: EnableUartRxInt
 211:app_UART.c    **** ******************************************************************************************
 212:app_UART.c    **** *
 213:app_UART.c    **** * Summary:
 214:app_UART.c    **** *  This function enables the UART RX interrupt.
 215:app_UART.c    **** *
 216:app_UART.c    **** * Parameters:
 217:app_UART.c    **** *   None.
 218:app_UART.c    **** *
 219:app_UART.c    **** * Return:
 220:app_UART.c    **** *   None.
 221:app_UART.c    **** *
 222:app_UART.c    **** *****************************************************************************************/
 223:app_UART.c    **** void EnableUartRxInt(void)
 224:app_UART.c    **** {
 1009              		.loc 1 224 0
 1010              		.cfi_startproc
 1011              		@ args = 0, pretend = 0, frame = 0
 1012              		@ frame_needed = 1, uses_anonymous_args = 0
 1013 0000 80B5     		push	{r7, lr}
 1014              		.cfi_def_cfa_offset 8
 1015              		.cfi_offset 7, -8
 1016              		.cfi_offset 14, -4
 1017 0002 00AF     		add	r7, sp, #0
 1018              		.cfi_def_cfa_register 7
 225:app_UART.c    ****     UART_INTR_RX_MASK_REG |= UART_RX_INTR_MASK;  
 1019              		.loc 1 225 0
 1020 0004 044B     		ldr	r3, .L44
 1021 0006 044A     		ldr	r2, .L44
ARM GAS  C:\Users\BENAKA~1\AppData\Local\Temp\cchf5c2F.s 			page 23


 1022 0008 1268     		ldr	r2, [r2]
 1023 000a 0421     		movs	r1, #4
 1024 000c 0A43     		orrs	r2, r1
 1025 000e 1A60     		str	r2, [r3]
 226:app_UART.c    **** }
 1026              		.loc 1 226 0
 1027 0010 C046     		nop
 1028 0012 BD46     		mov	sp, r7
 1029              		@ sp needed
 1030 0014 80BD     		pop	{r7, pc}
 1031              	.L45:
 1032 0016 C046     		.align	2
 1033              	.L44:
 1034 0018 C80F2440 		.word	1076105160
 1035              		.cfi_endproc
 1036              	.LFE40:
 1037              		.size	EnableUartRxInt, .-EnableUartRxInt
 1038              		.text
 1039              	.Letext0:
 1040              		.file 2 "c:\\program files (x86)\\cypress\\psoc creator\\4.2\\psoc creator\\import\\gnu\\arm\\5.4.
 1041              		.file 3 "c:\\program files (x86)\\cypress\\psoc creator\\4.2\\psoc creator\\import\\gnu\\arm\\5.4.
 1042              		.file 4 "Generated_Source\\PSoC4/cytypes.h"
 1043              		.file 5 "Generated_Source\\PSoC4/BLE_Stack.h"
 1044              		.file 6 "Generated_Source\\PSoC4/BLE_StackGatt.h"
 1045              		.file 7 "Generated_Source\\PSoC4/BLE_StackGattClient.h"
 1046              		.file 8 "Generated_Source\\PSoC4/BLE_eventHandler.h"
 1047              		.file 9 "app_UART.h"
 1048              		.section	.debug_info,"",%progbits
 1049              	.Ldebug_info0:
 1050 0000 6A070000 		.4byte	0x76a
 1051 0004 0400     		.2byte	0x4
 1052 0006 00000000 		.4byte	.Ldebug_abbrev0
 1053 000a 04       		.byte	0x4
 1054 000b 01       		.uleb128 0x1
 1055 000c 2B080000 		.4byte	.LASF175
 1056 0010 0C       		.byte	0xc
 1057 0011 1C050000 		.4byte	.LASF176
 1058 0015 4E060000 		.4byte	.LASF177
 1059 0019 00000000 		.4byte	.Ldebug_ranges0+0
 1060 001d 00000000 		.4byte	0
 1061 0021 00000000 		.4byte	.Ldebug_line0
 1062 0025 02       		.uleb128 0x2
 1063 0026 01       		.byte	0x1
 1064 0027 06       		.byte	0x6
 1065 0028 95020000 		.4byte	.LASF0
 1066 002c 03       		.uleb128 0x3
 1067 002d 4A010000 		.4byte	.LASF9
 1068 0031 02       		.byte	0x2
 1069 0032 1D       		.byte	0x1d
 1070 0033 37000000 		.4byte	0x37
 1071 0037 02       		.uleb128 0x2
 1072 0038 01       		.byte	0x1
 1073 0039 08       		.byte	0x8
 1074 003a AD0B0000 		.4byte	.LASF1
 1075 003e 02       		.uleb128 0x2
 1076 003f 02       		.byte	0x2
 1077 0040 05       		.byte	0x5
ARM GAS  C:\Users\BENAKA~1\AppData\Local\Temp\cchf5c2F.s 			page 24


 1078 0041 DF0B0000 		.4byte	.LASF2
 1079 0045 02       		.uleb128 0x2
 1080 0046 02       		.byte	0x2
 1081 0047 07       		.byte	0x7
 1082 0048 010F0000 		.4byte	.LASF3
 1083 004c 02       		.uleb128 0x2
 1084 004d 04       		.byte	0x4
 1085 004e 05       		.byte	0x5
 1086 004f 66010000 		.4byte	.LASF4
 1087 0053 02       		.uleb128 0x2
 1088 0054 04       		.byte	0x4
 1089 0055 07       		.byte	0x7
 1090 0056 B4020000 		.4byte	.LASF5
 1091 005a 02       		.uleb128 0x2
 1092 005b 08       		.byte	0x8
 1093 005c 05       		.byte	0x5
 1094 005d 87020000 		.4byte	.LASF6
 1095 0061 02       		.uleb128 0x2
 1096 0062 08       		.byte	0x8
 1097 0063 07       		.byte	0x7
 1098 0064 97010000 		.4byte	.LASF7
 1099 0068 04       		.uleb128 0x4
 1100 0069 04       		.byte	0x4
 1101 006a 05       		.byte	0x5
 1102 006b 696E7400 		.ascii	"int\000"
 1103 006f 02       		.uleb128 0x2
 1104 0070 04       		.byte	0x4
 1105 0071 07       		.byte	0x7
 1106 0072 BC0D0000 		.4byte	.LASF8
 1107 0076 03       		.uleb128 0x3
 1108 0077 B90F0000 		.4byte	.LASF10
 1109 007b 03       		.byte	0x3
 1110 007c 18       		.byte	0x18
 1111 007d 2C000000 		.4byte	0x2c
 1112 0081 05       		.uleb128 0x5
 1113 0082 F7030000 		.4byte	.LASF11
 1114 0086 04       		.byte	0x4
 1115 0087 E401     		.2byte	0x1e4
 1116 0089 37000000 		.4byte	0x37
 1117 008d 05       		.uleb128 0x5
 1118 008e 24000000 		.4byte	.LASF12
 1119 0092 04       		.byte	0x4
 1120 0093 E501     		.2byte	0x1e5
 1121 0095 45000000 		.4byte	0x45
 1122 0099 05       		.uleb128 0x5
 1123 009a 5F040000 		.4byte	.LASF13
 1124 009e 04       		.byte	0x4
 1125 009f E601     		.2byte	0x1e6
 1126 00a1 53000000 		.4byte	0x53
 1127 00a5 02       		.uleb128 0x2
 1128 00a6 04       		.byte	0x4
 1129 00a7 04       		.byte	0x4
 1130 00a8 6A0B0000 		.4byte	.LASF14
 1131 00ac 02       		.uleb128 0x2
 1132 00ad 08       		.byte	0x8
 1133 00ae 04       		.byte	0x4
 1134 00af 23040000 		.4byte	.LASF15
ARM GAS  C:\Users\BENAKA~1\AppData\Local\Temp\cchf5c2F.s 			page 25


 1135 00b3 02       		.uleb128 0x2
 1136 00b4 01       		.byte	0x1
 1137 00b5 08       		.byte	0x8
 1138 00b6 4F0D0000 		.4byte	.LASF16
 1139 00ba 05       		.uleb128 0x5
 1140 00bb 03090000 		.4byte	.LASF17
 1141 00bf 04       		.byte	0x4
 1142 00c0 9002     		.2byte	0x290
 1143 00c2 C6000000 		.4byte	0xc6
 1144 00c6 06       		.uleb128 0x6
 1145 00c7 99000000 		.4byte	0x99
 1146 00cb 02       		.uleb128 0x2
 1147 00cc 08       		.byte	0x8
 1148 00cd 04       		.byte	0x4
 1149 00ce 540D0000 		.4byte	.LASF18
 1150 00d2 02       		.uleb128 0x2
 1151 00d3 04       		.byte	0x4
 1152 00d4 07       		.byte	0x7
 1153 00d5 E4090000 		.4byte	.LASF19
 1154 00d9 07       		.uleb128 0x7
 1155 00da B3000000 		.4byte	0xb3
 1156 00de E9000000 		.4byte	0xe9
 1157 00e2 08       		.uleb128 0x8
 1158 00e3 D2000000 		.4byte	0xd2
 1159 00e7 07       		.byte	0x7
 1160 00e8 00       		.byte	0
 1161 00e9 09       		.uleb128 0x9
 1162 00ea 01       		.byte	0x1
 1163 00eb 37000000 		.4byte	0x37
 1164 00ef 05       		.byte	0x5
 1165 00f0 4D01     		.2byte	0x14d
 1166 00f2 A7020000 		.4byte	0x2a7
 1167 00f6 0A       		.uleb128 0xa
 1168 00f7 1D070000 		.4byte	.LASF20
 1169 00fb 00       		.byte	0
 1170 00fc 0A       		.uleb128 0xa
 1171 00fd A1020000 		.4byte	.LASF21
 1172 0101 01       		.byte	0x1
 1173 0102 0A       		.uleb128 0xa
 1174 0103 54010000 		.4byte	.LASF22
 1175 0107 02       		.byte	0x2
 1176 0108 0A       		.uleb128 0xa
 1177 0109 E80E0000 		.4byte	.LASF23
 1178 010d 03       		.byte	0x3
 1179 010e 0A       		.uleb128 0xa
 1180 010f C1010000 		.4byte	.LASF24
 1181 0113 04       		.byte	0x4
 1182 0114 0A       		.uleb128 0xa
 1183 0115 0F010000 		.4byte	.LASF25
 1184 0119 05       		.byte	0x5
 1185 011a 0A       		.uleb128 0xa
 1186 011b 52070000 		.4byte	.LASF26
 1187 011f 06       		.byte	0x6
 1188 0120 0A       		.uleb128 0xa
 1189 0121 09090000 		.4byte	.LASF27
 1190 0125 20       		.byte	0x20
 1191 0126 0A       		.uleb128 0xa
ARM GAS  C:\Users\BENAKA~1\AppData\Local\Temp\cchf5c2F.s 			page 26


 1192 0127 0F030000 		.4byte	.LASF28
 1193 012b 21       		.byte	0x21
 1194 012c 0A       		.uleb128 0xa
 1195 012d 8A070000 		.4byte	.LASF29
 1196 0131 22       		.byte	0x22
 1197 0132 0A       		.uleb128 0xa
 1198 0133 C20E0000 		.4byte	.LASF30
 1199 0137 23       		.byte	0x23
 1200 0138 0A       		.uleb128 0xa
 1201 0139 830A0000 		.4byte	.LASF31
 1202 013d 24       		.byte	0x24
 1203 013e 0A       		.uleb128 0xa
 1204 013f F7090000 		.4byte	.LASF32
 1205 0143 25       		.byte	0x25
 1206 0144 0A       		.uleb128 0xa
 1207 0145 AC030000 		.4byte	.LASF33
 1208 0149 26       		.byte	0x26
 1209 014a 0A       		.uleb128 0xa
 1210 014b AE070000 		.4byte	.LASF34
 1211 014f 27       		.byte	0x27
 1212 0150 0A       		.uleb128 0xa
 1213 0151 9A0D0000 		.4byte	.LASF35
 1214 0155 28       		.byte	0x28
 1215 0156 0A       		.uleb128 0xa
 1216 0157 41020000 		.4byte	.LASF36
 1217 015b 29       		.byte	0x29
 1218 015c 0A       		.uleb128 0xa
 1219 015d 8E000000 		.4byte	.LASF37
 1220 0161 2A       		.byte	0x2a
 1221 0162 0A       		.uleb128 0xa
 1222 0163 D6010000 		.4byte	.LASF38
 1223 0167 2B       		.byte	0x2b
 1224 0168 0A       		.uleb128 0xa
 1225 0169 4D100000 		.4byte	.LASF39
 1226 016d 2C       		.byte	0x2c
 1227 016e 0A       		.uleb128 0xa
 1228 016f 5E020000 		.4byte	.LASF40
 1229 0173 2D       		.byte	0x2d
 1230 0174 0A       		.uleb128 0xa
 1231 0175 BB0B0000 		.4byte	.LASF41
 1232 0179 2E       		.byte	0x2e
 1233 017a 0A       		.uleb128 0xa
 1234 017b 140F0000 		.4byte	.LASF42
 1235 017f 2F       		.byte	0x2f
 1236 0180 0A       		.uleb128 0xa
 1237 0181 620A0000 		.4byte	.LASF43
 1238 0185 30       		.byte	0x30
 1239 0186 0A       		.uleb128 0xa
 1240 0187 EB100000 		.4byte	.LASF44
 1241 018b 31       		.byte	0x31
 1242 018c 0A       		.uleb128 0xa
 1243 018d 3C0A0000 		.4byte	.LASF45
 1244 0191 32       		.byte	0x32
 1245 0192 0A       		.uleb128 0xa
 1246 0193 CC0C0000 		.4byte	.LASF46
 1247 0197 33       		.byte	0x33
 1248 0198 0A       		.uleb128 0xa
ARM GAS  C:\Users\BENAKA~1\AppData\Local\Temp\cchf5c2F.s 			page 27


 1249 0199 93050000 		.4byte	.LASF47
 1250 019d 34       		.byte	0x34
 1251 019e 0A       		.uleb128 0xa
 1252 019f CC040000 		.4byte	.LASF48
 1253 01a3 35       		.byte	0x35
 1254 01a4 0A       		.uleb128 0xa
 1255 01a5 E4070000 		.4byte	.LASF49
 1256 01a9 36       		.byte	0x36
 1257 01aa 0A       		.uleb128 0xa
 1258 01ab 40090000 		.4byte	.LASF50
 1259 01af 37       		.byte	0x37
 1260 01b0 0A       		.uleb128 0xa
 1261 01b1 B20C0000 		.4byte	.LASF51
 1262 01b5 40       		.byte	0x40
 1263 01b6 0A       		.uleb128 0xa
 1264 01b7 B9080000 		.4byte	.LASF52
 1265 01bb 41       		.byte	0x41
 1266 01bc 0A       		.uleb128 0xa
 1267 01bd 38110000 		.4byte	.LASF53
 1268 01c1 42       		.byte	0x42
 1269 01c2 0A       		.uleb128 0xa
 1270 01c3 690F0000 		.4byte	.LASF54
 1271 01c7 43       		.byte	0x43
 1272 01c8 0A       		.uleb128 0xa
 1273 01c9 C5050000 		.4byte	.LASF55
 1274 01cd 44       		.byte	0x44
 1275 01ce 0A       		.uleb128 0xa
 1276 01cf 430B0000 		.4byte	.LASF56
 1277 01d3 45       		.byte	0x45
 1278 01d4 0A       		.uleb128 0xa
 1279 01d5 A3090000 		.4byte	.LASF57
 1280 01d9 46       		.byte	0x46
 1281 01da 0A       		.uleb128 0xa
 1282 01db 34070000 		.4byte	.LASF58
 1283 01df 47       		.byte	0x47
 1284 01e0 0A       		.uleb128 0xa
 1285 01e1 11100000 		.4byte	.LASF59
 1286 01e5 48       		.byte	0x48
 1287 01e6 0A       		.uleb128 0xa
 1288 01e7 26030000 		.4byte	.LASF60
 1289 01eb 49       		.byte	0x49
 1290 01ec 0A       		.uleb128 0xa
 1291 01ed 00000000 		.4byte	.LASF61
 1292 01f1 4A       		.byte	0x4a
 1293 01f2 0A       		.uleb128 0xa
 1294 01f3 2B010000 		.4byte	.LASF62
 1295 01f7 4B       		.byte	0x4b
 1296 01f8 0A       		.uleb128 0xa
 1297 01f9 AB050000 		.4byte	.LASF63
 1298 01fd 4C       		.byte	0x4c
 1299 01fe 0A       		.uleb128 0xa
 1300 01ff 220A0000 		.4byte	.LASF64
 1301 0203 4D       		.byte	0x4d
 1302 0204 0A       		.uleb128 0xa
 1303 0205 59030000 		.4byte	.LASF65
 1304 0209 4E       		.byte	0x4e
 1305 020a 0A       		.uleb128 0xa
ARM GAS  C:\Users\BENAKA~1\AppData\Local\Temp\cchf5c2F.s 			page 28


 1306 020b 6C0C0000 		.4byte	.LASF66
 1307 020f 4F       		.byte	0x4f
 1308 0210 0A       		.uleb128 0xa
 1309 0211 6B070000 		.4byte	.LASF67
 1310 0215 50       		.byte	0x50
 1311 0216 0A       		.uleb128 0xa
 1312 0217 04040000 		.4byte	.LASF68
 1313 021b 51       		.byte	0x51
 1314 021c 0A       		.uleb128 0xa
 1315 021d BF0A0000 		.4byte	.LASF69
 1316 0221 52       		.byte	0x52
 1317 0222 0A       		.uleb128 0xa
 1318 0223 E90B0000 		.4byte	.LASF70
 1319 0227 53       		.byte	0x53
 1320 0228 0A       		.uleb128 0xa
 1321 0229 910C0000 		.4byte	.LASF71
 1322 022d 54       		.byte	0x54
 1323 022e 0A       		.uleb128 0xa
 1324 022f E3050000 		.4byte	.LASF72
 1325 0233 55       		.byte	0x55
 1326 0234 0A       		.uleb128 0xa
 1327 0235 FA040000 		.4byte	.LASF73
 1328 0239 56       		.byte	0x56
 1329 023a 0A       		.uleb128 0xa
 1330 023b D90D0000 		.4byte	.LASF74
 1331 023f 57       		.byte	0x57
 1332 0240 0A       		.uleb128 0xa
 1333 0241 07060000 		.4byte	.LASF75
 1334 0245 58       		.byte	0x58
 1335 0246 0A       		.uleb128 0xa
 1336 0247 05080000 		.4byte	.LASF76
 1337 024b 70       		.byte	0x70
 1338 024c 0A       		.uleb128 0xa
 1339 024d A0100000 		.4byte	.LASF77
 1340 0251 71       		.byte	0x71
 1341 0252 0A       		.uleb128 0xa
 1342 0253 E7080000 		.4byte	.LASF78
 1343 0257 72       		.byte	0x72
 1344 0258 0A       		.uleb128 0xa
 1345 0259 85090000 		.4byte	.LASF79
 1346 025d 73       		.byte	0x73
 1347 025e 0A       		.uleb128 0xa
 1348 025f 250B0000 		.4byte	.LASF80
 1349 0263 74       		.byte	0x74
 1350 0264 0A       		.uleb128 0xa
 1351 0265 7F100000 		.4byte	.LASF81
 1352 0269 75       		.byte	0x75
 1353 026a 0A       		.uleb128 0xa
 1354 026b 8B030000 		.4byte	.LASF82
 1355 026f 76       		.byte	0x76
 1356 0270 0A       		.uleb128 0xa
 1357 0271 2B000000 		.4byte	.LASF83
 1358 0275 77       		.byte	0x77
 1359 0276 0A       		.uleb128 0xa
 1360 0277 080E0000 		.4byte	.LASF84
 1361 027b 78       		.byte	0x78
 1362 027c 0A       		.uleb128 0xa
ARM GAS  C:\Users\BENAKA~1\AppData\Local\Temp\cchf5c2F.s 			page 29


 1363 027d 4C0E0000 		.4byte	.LASF85
 1364 0281 79       		.byte	0x79
 1365 0282 0A       		.uleb128 0xa
 1366 0283 97040000 		.4byte	.LASF86
 1367 0287 7A       		.byte	0x7a
 1368 0288 0A       		.uleb128 0xa
 1369 0289 F5010000 		.4byte	.LASF87
 1370 028d FA       		.byte	0xfa
 1371 028e 0A       		.uleb128 0xa
 1372 028f 43050000 		.4byte	.LASF88
 1373 0293 FB       		.byte	0xfb
 1374 0294 0A       		.uleb128 0xa
 1375 0295 0A0C0000 		.4byte	.LASF89
 1376 0299 FC       		.byte	0xfc
 1377 029a 0A       		.uleb128 0xa
 1378 029b 7E110000 		.4byte	.LASF90
 1379 029f FD       		.byte	0xfd
 1380 02a0 0A       		.uleb128 0xa
 1381 02a1 66040000 		.4byte	.LASF91
 1382 02a5 FF       		.byte	0xff
 1383 02a6 00       		.byte	0
 1384 02a7 09       		.uleb128 0x9
 1385 02a8 02       		.byte	0x2
 1386 02a9 45000000 		.4byte	0x45
 1387 02ad 05       		.byte	0x5
 1388 02ae 0204     		.2byte	0x402
 1389 02b0 80030000 		.4byte	0x380
 1390 02b4 0A       		.uleb128 0xa
 1391 02b5 74040000 		.4byte	.LASF92
 1392 02b9 00       		.byte	0
 1393 02ba 0A       		.uleb128 0xa
 1394 02bb 41040000 		.4byte	.LASF93
 1395 02bf 01       		.byte	0x1
 1396 02c0 0A       		.uleb128 0xa
 1397 02c1 4B0F0000 		.4byte	.LASF94
 1398 02c5 02       		.byte	0x2
 1399 02c6 0A       		.uleb128 0xa
 1400 02c7 69000000 		.4byte	.LASF95
 1401 02cb 03       		.byte	0x3
 1402 02cc 0A       		.uleb128 0xa
 1403 02cd 8F0F0000 		.4byte	.LASF96
 1404 02d1 04       		.byte	0x4
 1405 02d2 0A       		.uleb128 0xa
 1406 02d3 360C0000 		.4byte	.LASF97
 1407 02d7 05       		.byte	0x5
 1408 02d8 0A       		.uleb128 0xa
 1409 02d9 1C0C0000 		.4byte	.LASF98
 1410 02dd 06       		.byte	0x6
 1411 02de 0A       		.uleb128 0xa
 1412 02df E8020000 		.4byte	.LASF99
 1413 02e3 07       		.byte	0x7
 1414 02e4 0A       		.uleb128 0xa
 1415 02e5 96110000 		.4byte	.LASF100
 1416 02e9 08       		.byte	0x8
 1417 02ea 0A       		.uleb128 0xa
 1418 02eb 38100000 		.4byte	.LASF101
 1419 02ef 09       		.byte	0x9
ARM GAS  C:\Users\BENAKA~1\AppData\Local\Temp\cchf5c2F.s 			page 30


 1420 02f0 0A       		.uleb128 0xa
 1421 02f1 700B0000 		.4byte	.LASF102
 1422 02f5 0A       		.byte	0xa
 1423 02f6 0A       		.uleb128 0xa
 1424 02f7 670D0000 		.4byte	.LASF103
 1425 02fb 0B       		.byte	0xb
 1426 02fc 0A       		.uleb128 0xa
 1427 02fd 2A020000 		.4byte	.LASF104
 1428 0301 0C       		.byte	0xc
 1429 0302 0A       		.uleb128 0xa
 1430 0303 C6100000 		.4byte	.LASF105
 1431 0307 0D       		.byte	0xd
 1432 0308 0A       		.uleb128 0xa
 1433 0309 62050000 		.4byte	.LASF106
 1434 030d 0E       		.byte	0xe
 1435 030e 0A       		.uleb128 0xa
 1436 030f B7000000 		.4byte	.LASF107
 1437 0313 0F       		.byte	0xf
 1438 0314 0A       		.uleb128 0xa
 1439 0315 940E0000 		.4byte	.LASF108
 1440 0319 10       		.byte	0x10
 1441 031a 0A       		.uleb128 0xa
 1442 031b 2A060000 		.4byte	.LASF109
 1443 031f 11       		.byte	0x11
 1444 0320 0A       		.uleb128 0xa
 1445 0321 D4030000 		.4byte	.LASF110
 1446 0325 12       		.byte	0x12
 1447 0326 0A       		.uleb128 0xa
 1448 0327 56110000 		.4byte	.LASF111
 1449 032b 13       		.byte	0x13
 1450 032c 0A       		.uleb128 0xa
 1451 032d C6020000 		.4byte	.LASF112
 1452 0331 27       		.byte	0x27
 1453 0332 0A       		.uleb128 0xa
 1454 0333 6F0E0000 		.4byte	.LASF113
 1455 0337 28       		.byte	0x28
 1456 0338 0A       		.uleb128 0xa
 1457 0339 EA0F0000 		.4byte	.LASF114
 1458 033d 29       		.byte	0x29
 1459 033e 0A       		.uleb128 0xa
 1460 033f 6F010000 		.4byte	.LASF115
 1461 0343 2A       		.byte	0x2a
 1462 0344 0A       		.uleb128 0xa
 1463 0345 DC000000 		.4byte	.LASF116
 1464 0349 2B       		.byte	0x2b
 1465 034a 0A       		.uleb128 0xa
 1466 034b 540C0000 		.4byte	.LASF117
 1467 034f 2C       		.byte	0x2c
 1468 0350 0A       		.uleb128 0xa
 1469 0351 C10F0000 		.4byte	.LASF118
 1470 0355 FE       		.byte	0xfe
 1471 0356 0A       		.uleb128 0xa
 1472 0357 75090000 		.4byte	.LASF119
 1473 035b FF       		.byte	0xff
 1474 035c 0B       		.uleb128 0xb
 1475 035d 04070000 		.4byte	.LASF120
 1476 0361 0001     		.2byte	0x100
ARM GAS  C:\Users\BENAKA~1\AppData\Local\Temp\cchf5c2F.s 			page 31


 1477 0363 0B       		.uleb128 0xb
 1478 0364 E00A0000 		.4byte	.LASF121
 1479 0368 0101     		.2byte	0x101
 1480 036a 0B       		.uleb128 0xb
 1481 036b 8A0B0000 		.4byte	.LASF122
 1482 036f 0201     		.2byte	0x102
 1483 0371 0B       		.uleb128 0xb
 1484 0372 3F030000 		.4byte	.LASF123
 1485 0376 0301     		.2byte	0x103
 1486 0378 0B       		.uleb128 0xb
 1487 0379 380D0000 		.4byte	.LASF124
 1488 037d 0401     		.2byte	0x104
 1489 037f 00       		.byte	0
 1490 0380 05       		.uleb128 0x5
 1491 0381 AC0A0000 		.4byte	.LASF125
 1492 0385 05       		.byte	0x5
 1493 0386 7104     		.2byte	0x471
 1494 0388 A7020000 		.4byte	0x2a7
 1495 038c 0C       		.uleb128 0xc
 1496 038d 04       		.byte	0x4
 1497 038e 81000000 		.4byte	0x81
 1498 0392 07       		.uleb128 0x7
 1499 0393 81000000 		.4byte	0x81
 1500 0397 A2030000 		.4byte	0x3a2
 1501 039b 08       		.uleb128 0x8
 1502 039c D2000000 		.4byte	0xd2
 1503 03a0 0F       		.byte	0xf
 1504 03a1 00       		.byte	0
 1505 03a2 07       		.uleb128 0x7
 1506 03a3 81000000 		.4byte	0x81
 1507 03a7 B2030000 		.4byte	0x3b2
 1508 03ab 08       		.uleb128 0x8
 1509 03ac D2000000 		.4byte	0xd2
 1510 03b0 06       		.byte	0x6
 1511 03b1 00       		.byte	0
 1512 03b2 05       		.uleb128 0x5
 1513 03b3 0F110000 		.4byte	.LASF126
 1514 03b7 06       		.byte	0x6
 1515 03b8 8901     		.2byte	0x189
 1516 03ba 8D000000 		.4byte	0x8d
 1517 03be 0D       		.uleb128 0xd
 1518 03bf 02       		.byte	0x2
 1519 03c0 06       		.byte	0x6
 1520 03c1 9301     		.2byte	0x193
 1521 03c3 E2030000 		.4byte	0x3e2
 1522 03c7 0E       		.uleb128 0xe
 1523 03c8 83040000 		.4byte	.LASF127
 1524 03cc 06       		.byte	0x6
 1525 03cd 9A01     		.2byte	0x19a
 1526 03cf 81000000 		.4byte	0x81
 1527 03d3 00       		.byte	0
 1528 03d4 0E       		.uleb128 0xe
 1529 03d5 E1080000 		.4byte	.LASF128
 1530 03d9 06       		.byte	0x6
 1531 03da A001     		.2byte	0x1a0
 1532 03dc 81000000 		.4byte	0x81
 1533 03e0 01       		.byte	0x1
ARM GAS  C:\Users\BENAKA~1\AppData\Local\Temp\cchf5c2F.s 			page 32


 1534 03e1 00       		.byte	0
 1535 03e2 05       		.uleb128 0x5
 1536 03e3 4A000000 		.4byte	.LASF129
 1537 03e7 06       		.byte	0x6
 1538 03e8 A201     		.2byte	0x1a2
 1539 03ea BE030000 		.4byte	0x3be
 1540 03ee 0D       		.uleb128 0xd
 1541 03ef 08       		.byte	0x8
 1542 03f0 06       		.byte	0x6
 1543 03f1 BE01     		.2byte	0x1be
 1544 03f3 1F040000 		.4byte	0x41f
 1545 03f7 0F       		.uleb128 0xf
 1546 03f8 76616C00 		.ascii	"val\000"
 1547 03fc 06       		.byte	0x6
 1548 03fd C101     		.2byte	0x1c1
 1549 03ff 8C030000 		.4byte	0x38c
 1550 0403 00       		.byte	0
 1551 0404 0F       		.uleb128 0xf
 1552 0405 6C656E00 		.ascii	"len\000"
 1553 0409 06       		.byte	0x6
 1554 040a C401     		.2byte	0x1c4
 1555 040c 8D000000 		.4byte	0x8d
 1556 0410 04       		.byte	0x4
 1557 0411 0E       		.uleb128 0xe
 1558 0412 05030000 		.4byte	.LASF130
 1559 0416 06       		.byte	0x6
 1560 0417 CB01     		.2byte	0x1cb
 1561 0419 8D000000 		.4byte	0x8d
 1562 041d 06       		.byte	0x6
 1563 041e 00       		.byte	0
 1564 041f 05       		.uleb128 0x5
 1565 0420 AE010000 		.4byte	.LASF131
 1566 0424 06       		.byte	0x6
 1567 0425 CD01     		.2byte	0x1cd
 1568 0427 EE030000 		.4byte	0x3ee
 1569 042b 0D       		.uleb128 0xd
 1570 042c 0C       		.byte	0xc
 1571 042d 06       		.byte	0x6
 1572 042e D001     		.2byte	0x1d0
 1573 0430 4F040000 		.4byte	0x44f
 1574 0434 0E       		.uleb128 0xe
 1575 0435 8B0C0000 		.4byte	.LASF132
 1576 0439 06       		.byte	0x6
 1577 043a D301     		.2byte	0x1d3
 1578 043c 1F040000 		.4byte	0x41f
 1579 0440 00       		.byte	0
 1580 0441 0E       		.uleb128 0xe
 1581 0442 8C040000 		.4byte	.LASF133
 1582 0446 06       		.byte	0x6
 1583 0447 D601     		.2byte	0x1d6
 1584 0449 B2030000 		.4byte	0x3b2
 1585 044d 08       		.byte	0x8
 1586 044e 00       		.byte	0
 1587 044f 05       		.uleb128 0x5
 1588 0450 F90A0000 		.4byte	.LASF134
 1589 0454 06       		.byte	0x6
 1590 0455 D801     		.2byte	0x1d8
ARM GAS  C:\Users\BENAKA~1\AppData\Local\Temp\cchf5c2F.s 			page 33


 1591 0457 2B040000 		.4byte	0x42b
 1592 045b 03       		.uleb128 0x3
 1593 045c 300E0000 		.4byte	.LASF135
 1594 0460 07       		.byte	0x7
 1595 0461 77       		.byte	0x77
 1596 0462 4F040000 		.4byte	0x44f
 1597 0466 10       		.uleb128 0x10
 1598 0467 10       		.byte	0x10
 1599 0468 07       		.byte	0x7
 1600 0469 8B       		.byte	0x8b
 1601 046a 87040000 		.4byte	0x487
 1602 046e 11       		.uleb128 0x11
 1603 046f 5E000000 		.4byte	.LASF136
 1604 0473 07       		.byte	0x7
 1605 0474 8E       		.byte	0x8e
 1606 0475 E2030000 		.4byte	0x3e2
 1607 0479 00       		.byte	0
 1608 047a 11       		.uleb128 0x11
 1609 047b 3D0F0000 		.4byte	.LASF137
 1610 047f 07       		.byte	0x7
 1611 0480 91       		.byte	0x91
 1612 0481 4F040000 		.4byte	0x44f
 1613 0485 04       		.byte	0x4
 1614 0486 00       		.byte	0
 1615 0487 03       		.uleb128 0x3
 1616 0488 130D0000 		.4byte	.LASF138
 1617 048c 07       		.byte	0x7
 1618 048d 93       		.byte	0x93
 1619 048e 66040000 		.4byte	0x466
 1620 0492 09       		.uleb128 0x9
 1621 0493 01       		.byte	0x1
 1622 0494 37000000 		.4byte	0x37
 1623 0498 08       		.byte	0x8
 1624 0499 9308     		.2byte	0x893
 1625 049b BE040000 		.4byte	0x4be
 1626 049f 0A       		.uleb128 0xa
 1627 04a0 040D0000 		.4byte	.LASF139
 1628 04a4 00       		.byte	0
 1629 04a5 0A       		.uleb128 0xa
 1630 04a6 C90D0000 		.4byte	.LASF140
 1631 04aa 01       		.byte	0x1
 1632 04ab 0A       		.uleb128 0xa
 1633 04ac 870D0000 		.4byte	.LASF141
 1634 04b0 02       		.byte	0x2
 1635 04b1 0A       		.uleb128 0xa
 1636 04b2 2A040000 		.4byte	.LASF142
 1637 04b6 02       		.byte	0x2
 1638 04b7 0A       		.uleb128 0xa
 1639 04b8 F30C0000 		.4byte	.LASF143
 1640 04bc 03       		.byte	0x3
 1641 04bd 00       		.byte	0
 1642 04be 12       		.uleb128 0x12
 1643 04bf D4080000 		.4byte	.LASF146
 1644 04c3 01       		.byte	0x1
 1645 04c4 15       		.byte	0x15
 1646 04c5 00000000 		.4byte	.LFB36
 1647 04c9 34000000 		.4byte	.LFE36-.LFB36
ARM GAS  C:\Users\BENAKA~1\AppData\Local\Temp\cchf5c2F.s 			page 34


 1648 04cd 01       		.uleb128 0x1
 1649 04ce 9C       		.byte	0x9c
 1650 04cf FE040000 		.4byte	0x4fe
 1651 04d3 13       		.uleb128 0x13
 1652 04d4 870F0000 		.4byte	.LASF144
 1653 04d8 01       		.byte	0x1
 1654 04d9 15       		.byte	0x15
 1655 04da 8C030000 		.4byte	0x38c
 1656 04de 02       		.uleb128 0x2
 1657 04df 91       		.byte	0x91
 1658 04e0 64       		.sleb128 -28
 1659 04e1 13       		.uleb128 0x13
 1660 04e2 600D0000 		.4byte	.LASF145
 1661 04e6 01       		.byte	0x1
 1662 04e7 15       		.byte	0x15
 1663 04e8 81000000 		.4byte	0x81
 1664 04ec 02       		.uleb128 0x2
 1665 04ed 91       		.byte	0x91
 1666 04ee 63       		.sleb128 -29
 1667 04ef 14       		.uleb128 0x14
 1668 04f0 FD030000 		.4byte	.LASF150
 1669 04f4 01       		.byte	0x1
 1670 04f5 1E       		.byte	0x1e
 1671 04f6 80030000 		.4byte	0x380
 1672 04fa 02       		.uleb128 0x2
 1673 04fb 91       		.byte	0x91
 1674 04fc 6E       		.sleb128 -18
 1675 04fd 00       		.byte	0
 1676 04fe 12       		.uleb128 0x12
 1677 04ff 77030000 		.4byte	.LASF147
 1678 0503 01       		.byte	0x1
 1679 0504 35       		.byte	0x35
 1680 0505 00000000 		.4byte	.LFB37
 1681 0509 30000000 		.4byte	.LFE37-.LFB37
 1682 050d 01       		.uleb128 0x1
 1683 050e 9C       		.byte	0x9c
 1684 050f 22050000 		.4byte	0x522
 1685 0513 13       		.uleb128 0x13
 1686 0514 CD070000 		.4byte	.LASF148
 1687 0518 01       		.byte	0x1
 1688 0519 35       		.byte	0x35
 1689 051a 22050000 		.4byte	0x522
 1690 051e 02       		.uleb128 0x2
 1691 051f 91       		.byte	0x91
 1692 0520 74       		.sleb128 -12
 1693 0521 00       		.byte	0
 1694 0522 0C       		.uleb128 0xc
 1695 0523 04       		.byte	0x4
 1696 0524 87040000 		.4byte	0x487
 1697 0528 12       		.uleb128 0x12
 1698 0529 C4090000 		.4byte	.LASF149
 1699 052d 01       		.byte	0x1
 1700 052e 56       		.byte	0x56
 1701 052f 00000000 		.4byte	.LFB38
 1702 0533 60050000 		.4byte	.LFE38-.LFB38
 1703 0537 01       		.uleb128 0x1
 1704 0538 9C       		.byte	0x9c
ARM GAS  C:\Users\BENAKA~1\AppData\Local\Temp\cchf5c2F.s 			page 35


 1705 0539 4B060000 		.4byte	0x64b
 1706 053d 14       		.uleb128 0x14
 1707 053e 8C010000 		.4byte	.LASF151
 1708 0542 01       		.byte	0x1
 1709 0543 58       		.byte	0x58
 1710 0544 92030000 		.4byte	0x392
 1711 0548 03       		.uleb128 0x3
 1712 0549 91       		.byte	0x91
 1713 054a B07F     		.sleb128 -80
 1714 054c 15       		.uleb128 0x15
 1715 054d 020E0000 		.4byte	.LASF153
 1716 0551 01       		.byte	0x1
 1717 0552 59       		.byte	0x59
 1718 0553 81000000 		.4byte	0x81
 1719 0557 14       		.uleb128 0x14
 1720 0558 06100000 		.4byte	.LASF152
 1721 055c 01       		.byte	0x1
 1722 055d 5A       		.byte	0x5a
 1723 055e 4B060000 		.4byte	0x64b
 1724 0562 03       		.uleb128 0x3
 1725 0563 91       		.byte	0x91
 1726 0564 5C       		.sleb128 -36
 1727 0565 06       		.byte	0x6
 1728 0566 15       		.uleb128 0x15
 1729 0567 BB040000 		.4byte	.LASF154
 1730 056b 01       		.byte	0x1
 1731 056c 5B       		.byte	0x5b
 1732 056d 8D000000 		.4byte	0x8d
 1733 0571 15       		.uleb128 0x15
 1734 0572 DD0F0000 		.4byte	.LASF155
 1735 0576 01       		.byte	0x1
 1736 0577 5C       		.byte	0x5c
 1737 0578 80030000 		.4byte	0x380
 1738 057c 14       		.uleb128 0x14
 1739 057d 2D090000 		.4byte	.LASF156
 1740 0581 01       		.byte	0x1
 1741 0582 5D       		.byte	0x5d
 1742 0583 5B040000 		.4byte	0x45b
 1743 0587 03       		.uleb128 0x3
 1744 0588 91       		.byte	0x91
 1745 0589 A47F     		.sleb128 -92
 1746 058b 16       		.uleb128 0x16
 1747 058c 1E000000 		.4byte	.LASF165
 1748 0590 01       		.byte	0x1
 1749 0591 5F       		.byte	0x5f
 1750 0592 68000000 		.4byte	0x68
 1751 0596 14       		.uleb128 0x14
 1752 0597 FD030000 		.4byte	.LASF150
 1753 059b 01       		.byte	0x1
 1754 059c 60       		.byte	0x60
 1755 059d 68000000 		.4byte	0x68
 1756 05a1 02       		.uleb128 0x2
 1757 05a2 91       		.byte	0x91
 1758 05a3 58       		.sleb128 -40
 1759 05a4 17       		.uleb128 0x17
 1760 05a5 6D5F7A00 		.ascii	"m_z\000"
 1761 05a9 01       		.byte	0x1
ARM GAS  C:\Users\BENAKA~1\AppData\Local\Temp\cchf5c2F.s 			page 36


 1762 05aa 62       		.byte	0x62
 1763 05ab 5A000000 		.4byte	0x5a
 1764 05af 02       		.uleb128 0x2
 1765 05b0 91       		.byte	0x91
 1766 05b1 50       		.sleb128 -48
 1767 05b2 17       		.uleb128 0x17
 1768 05b3 6D5F7700 		.ascii	"m_w\000"
 1769 05b7 01       		.byte	0x1
 1770 05b8 63       		.byte	0x63
 1771 05b9 5A000000 		.4byte	0x5a
 1772 05bd 02       		.uleb128 0x2
 1773 05be 91       		.byte	0x91
 1774 05bf 48       		.sleb128 -56
 1775 05c0 14       		.uleb128 0x14
 1776 05c1 2B0E0000 		.4byte	.LASF157
 1777 05c5 01       		.byte	0x1
 1778 05c6 65       		.byte	0x65
 1779 05c7 5E060000 		.4byte	0x65e
 1780 05cb 03       		.uleb128 0x3
 1781 05cc 91       		.byte	0x91
 1782 05cd 947F     		.sleb128 -108
 1783 05cf 14       		.uleb128 0x14
 1784 05d0 37050000 		.4byte	.LASF158
 1785 05d4 01       		.byte	0x1
 1786 05d5 66       		.byte	0x66
 1787 05d6 6E060000 		.4byte	0x66e
 1788 05da 03       		.uleb128 0x3
 1789 05db 91       		.byte	0x91
 1790 05dc 8C7F     		.sleb128 -116
 1791 05de 14       		.uleb128 0x14
 1792 05df E9040000 		.4byte	.LASF159
 1793 05e3 01       		.byte	0x1
 1794 05e4 67       		.byte	0x67
 1795 05e5 D9000000 		.4byte	0xd9
 1796 05e9 03       		.uleb128 0x3
 1797 05ea 91       		.byte	0x91
 1798 05eb 847F     		.sleb128 -124
 1799 05ed 14       		.uleb128 0x14
 1800 05ee B20F0000 		.4byte	.LASF160
 1801 05f2 01       		.byte	0x1
 1802 05f3 68       		.byte	0x68
 1803 05f4 68000000 		.4byte	0x68
 1804 05f8 02       		.uleb128 0x2
 1805 05f9 91       		.byte	0x91
 1806 05fa 44       		.sleb128 -60
 1807 05fb 17       		.uleb128 0x17
 1808 05fc 6B00     		.ascii	"k\000"
 1809 05fe 01       		.byte	0x1
 1810 05ff 6A       		.byte	0x6a
 1811 0600 68000000 		.4byte	0x68
 1812 0604 02       		.uleb128 0x2
 1813 0605 91       		.byte	0x91
 1814 0606 64       		.sleb128 -28
 1815 0607 14       		.uleb128 0x14
 1816 0608 180B0000 		.4byte	.LASF161
 1817 060c 01       		.byte	0x1
 1818 060d 84       		.byte	0x84
ARM GAS  C:\Users\BENAKA~1\AppData\Local\Temp\cchf5c2F.s 			page 37


 1819 060e 7E060000 		.4byte	0x67e
 1820 0612 03       		.uleb128 0x3
 1821 0613 91       		.byte	0x91
 1822 0614 FC7E     		.sleb128 -132
 1823 0616 18       		.uleb128 0x18
 1824 0617 16010000 		.4byte	.LBB2
 1825 061b AE010000 		.4byte	.LBE2-.LBB2
 1826 061f 32060000 		.4byte	0x632
 1827 0623 14       		.uleb128 0x14
 1828 0624 13020000 		.4byte	.LASF162
 1829 0628 01       		.byte	0x1
 1830 0629 6C       		.byte	0x6c
 1831 062a B3000000 		.4byte	0xb3
 1832 062e 02       		.uleb128 0x2
 1833 062f 91       		.byte	0x91
 1834 0630 43       		.sleb128 -61
 1835 0631 00       		.byte	0
 1836 0632 19       		.uleb128 0x19
 1837 0633 0C030000 		.4byte	.LBB3
 1838 0637 CA010000 		.4byte	.LBE3-.LBB3
 1839 063b 14       		.uleb128 0x14
 1840 063c 2B0E0000 		.4byte	.LASF157
 1841 0640 01       		.byte	0x1
 1842 0641 92       		.byte	0x92
 1843 0642 B3000000 		.4byte	0xb3
 1844 0646 02       		.uleb128 0x2
 1845 0647 91       		.byte	0x91
 1846 0648 42       		.sleb128 -62
 1847 0649 00       		.byte	0
 1848 064a 00       		.byte	0
 1849 064b 07       		.uleb128 0x7
 1850 064c 81000000 		.4byte	0x81
 1851 0650 5E060000 		.4byte	0x65e
 1852 0654 1A       		.uleb128 0x1a
 1853 0655 D2000000 		.4byte	0xd2
 1854 0659 03       		.uleb128 0x3
 1855 065a 91       		.byte	0x91
 1856 065b 60       		.sleb128 -32
 1857 065c 06       		.byte	0x6
 1858 065d 00       		.byte	0
 1859 065e 07       		.uleb128 0x7
 1860 065f B3000000 		.4byte	0xb3
 1861 0663 6E060000 		.4byte	0x66e
 1862 0667 08       		.uleb128 0x8
 1863 0668 D2000000 		.4byte	0xd2
 1864 066c 0F       		.byte	0xf
 1865 066d 00       		.byte	0
 1866 066e 07       		.uleb128 0x7
 1867 066f 81000000 		.4byte	0x81
 1868 0673 7E060000 		.4byte	0x67e
 1869 0677 08       		.uleb128 0x8
 1870 0678 D2000000 		.4byte	0xd2
 1871 067c 07       		.byte	0x7
 1872 067d 00       		.byte	0
 1873 067e 07       		.uleb128 0x7
 1874 067f B3000000 		.4byte	0xb3
 1875 0683 8E060000 		.4byte	0x68e
ARM GAS  C:\Users\BENAKA~1\AppData\Local\Temp\cchf5c2F.s 			page 38


 1876 0687 08       		.uleb128 0x8
 1877 0688 D2000000 		.4byte	0xd2
 1878 068c 06       		.byte	0x6
 1879 068d 00       		.byte	0
 1880 068e 1B       		.uleb128 0x1b
 1881 068f 19020000 		.4byte	.LASF163
 1882 0693 01       		.byte	0x1
 1883 0694 CC       		.byte	0xcc
 1884 0695 00000000 		.4byte	.LFB39
 1885 0699 1C000000 		.4byte	.LFE39-.LFB39
 1886 069d 01       		.uleb128 0x1
 1887 069e 9C       		.byte	0x9c
 1888 069f 1B       		.uleb128 0x1b
 1889 06a0 27050000 		.4byte	.LASF164
 1890 06a4 01       		.byte	0x1
 1891 06a5 DF       		.byte	0xdf
 1892 06a6 00000000 		.4byte	.LFB40
 1893 06aa 1C000000 		.4byte	.LFE40-.LFB40
 1894 06ae 01       		.uleb128 0x1
 1895 06af 9C       		.byte	0x9c
 1896 06b0 1C       		.uleb128 0x1c
 1897 06b1 110A0000 		.4byte	.LASF166
 1898 06b5 08       		.byte	0x8
 1899 06b6 AA0A     		.2byte	0xaaa
 1900 06b8 E2030000 		.4byte	0x3e2
 1901 06bc 16       		.uleb128 0x16
 1902 06bd 8B050000 		.4byte	.LASF167
 1903 06c1 09       		.byte	0x9
 1904 06c2 20       		.byte	0x20
 1905 06c3 8D000000 		.4byte	0x8d
 1906 06c7 16       		.uleb128 0x16
 1907 06c8 2B110000 		.4byte	.LASF168
 1908 06cc 09       		.byte	0x9
 1909 06cd 21       		.byte	0x21
 1910 06ce 8D000000 		.4byte	0x8d
 1911 06d2 16       		.uleb128 0x16
 1912 06d3 9F0A0000 		.4byte	.LASF169
 1913 06d7 09       		.byte	0x9
 1914 06d8 22       		.byte	0x22
 1915 06d9 8D000000 		.4byte	0x8d
 1916 06dd 07       		.uleb128 0x7
 1917 06de ED060000 		.4byte	0x6ed
 1918 06e2 ED060000 		.4byte	0x6ed
 1919 06e6 08       		.uleb128 0x8
 1920 06e7 D2000000 		.4byte	0xd2
 1921 06eb 0F       		.byte	0xf
 1922 06ec 00       		.byte	0
 1923 06ed 1D       		.uleb128 0x1d
 1924 06ee 81000000 		.4byte	0x81
 1925 06f2 1E       		.uleb128 0x1e
 1926 06f3 71100000 		.4byte	.LASF170
 1927 06f7 01       		.byte	0x1
 1928 06f8 13       		.byte	0x13
 1929 06f9 03070000 		.4byte	0x703
 1930 06fd 05       		.uleb128 0x5
 1931 06fe 03       		.byte	0x3
 1932 06ff 00000000 		.4byte	flash_storage
ARM GAS  C:\Users\BENAKA~1\AppData\Local\Temp\cchf5c2F.s 			page 39


 1933 0703 1D       		.uleb128 0x1d
 1934 0704 DD060000 		.4byte	0x6dd
 1935 0708 1E       		.uleb128 0x1e
 1936 0709 8C010000 		.4byte	.LASF151
 1937 070d 01       		.byte	0x1
 1938 070e 4F       		.byte	0x4f
 1939 070f 92030000 		.4byte	0x392
 1940 0713 05       		.uleb128 0x5
 1941 0714 03       		.byte	0x3
 1942 0715 00000000 		.4byte	WriteArray
 1943 0719 1E       		.uleb128 0x1e
 1944 071a D8090000 		.4byte	.LASF171
 1945 071e 01       		.byte	0x1
 1946 071f 50       		.byte	0x50
 1947 0720 92030000 		.4byte	0x392
 1948 0724 05       		.uleb128 0x5
 1949 0725 03       		.byte	0x3
 1950 0726 00000000 		.4byte	WriteArray2
 1951 072a 1E       		.uleb128 0x1e
 1952 072b EE040000 		.4byte	.LASF172
 1953 072f 01       		.byte	0x1
 1954 0730 51       		.byte	0x51
 1955 0731 5E060000 		.4byte	0x65e
 1956 0735 05       		.uleb128 0x5
 1957 0736 03       		.byte	0x3
 1958 0737 00000000 		.4byte	WriteArray3
 1959 073b 1E       		.uleb128 0x1e
 1960 073c ED090000 		.4byte	.LASF173
 1961 0740 01       		.byte	0x1
 1962 0741 52       		.byte	0x52
 1963 0742 A2030000 		.4byte	0x3a2
 1964 0746 05       		.uleb128 0x5
 1965 0747 03       		.byte	0x3
 1966 0748 00000000 		.4byte	ReadArray
 1967 074c 07       		.uleb128 0x7
 1968 074d 81000000 		.4byte	0x81
 1969 0751 5C070000 		.4byte	0x75c
 1970 0755 08       		.uleb128 0x8
 1971 0756 D2000000 		.4byte	0xd2
 1972 075a 0E       		.byte	0xe
 1973 075b 00       		.byte	0
 1974 075c 1E       		.uleb128 0x1e
 1975 075d 5D0A0000 		.4byte	.LASF174
 1976 0761 01       		.byte	0x1
 1977 0762 53       		.byte	0x53
 1978 0763 4C070000 		.4byte	0x74c
 1979 0767 05       		.uleb128 0x5
 1980 0768 03       		.byte	0x3
 1981 0769 00000000 		.4byte	Temp
 1982 076d 00       		.byte	0
 1983              		.section	.debug_abbrev,"",%progbits
 1984              	.Ldebug_abbrev0:
 1985 0000 01       		.uleb128 0x1
 1986 0001 11       		.uleb128 0x11
 1987 0002 01       		.byte	0x1
 1988 0003 25       		.uleb128 0x25
 1989 0004 0E       		.uleb128 0xe
ARM GAS  C:\Users\BENAKA~1\AppData\Local\Temp\cchf5c2F.s 			page 40


 1990 0005 13       		.uleb128 0x13
 1991 0006 0B       		.uleb128 0xb
 1992 0007 03       		.uleb128 0x3
 1993 0008 0E       		.uleb128 0xe
 1994 0009 1B       		.uleb128 0x1b
 1995 000a 0E       		.uleb128 0xe
 1996 000b 55       		.uleb128 0x55
 1997 000c 17       		.uleb128 0x17
 1998 000d 11       		.uleb128 0x11
 1999 000e 01       		.uleb128 0x1
 2000 000f 10       		.uleb128 0x10
 2001 0010 17       		.uleb128 0x17
 2002 0011 00       		.byte	0
 2003 0012 00       		.byte	0
 2004 0013 02       		.uleb128 0x2
 2005 0014 24       		.uleb128 0x24
 2006 0015 00       		.byte	0
 2007 0016 0B       		.uleb128 0xb
 2008 0017 0B       		.uleb128 0xb
 2009 0018 3E       		.uleb128 0x3e
 2010 0019 0B       		.uleb128 0xb
 2011 001a 03       		.uleb128 0x3
 2012 001b 0E       		.uleb128 0xe
 2013 001c 00       		.byte	0
 2014 001d 00       		.byte	0
 2015 001e 03       		.uleb128 0x3
 2016 001f 16       		.uleb128 0x16
 2017 0020 00       		.byte	0
 2018 0021 03       		.uleb128 0x3
 2019 0022 0E       		.uleb128 0xe
 2020 0023 3A       		.uleb128 0x3a
 2021 0024 0B       		.uleb128 0xb
 2022 0025 3B       		.uleb128 0x3b
 2023 0026 0B       		.uleb128 0xb
 2024 0027 49       		.uleb128 0x49
 2025 0028 13       		.uleb128 0x13
 2026 0029 00       		.byte	0
 2027 002a 00       		.byte	0
 2028 002b 04       		.uleb128 0x4
 2029 002c 24       		.uleb128 0x24
 2030 002d 00       		.byte	0
 2031 002e 0B       		.uleb128 0xb
 2032 002f 0B       		.uleb128 0xb
 2033 0030 3E       		.uleb128 0x3e
 2034 0031 0B       		.uleb128 0xb
 2035 0032 03       		.uleb128 0x3
 2036 0033 08       		.uleb128 0x8
 2037 0034 00       		.byte	0
 2038 0035 00       		.byte	0
 2039 0036 05       		.uleb128 0x5
 2040 0037 16       		.uleb128 0x16
 2041 0038 00       		.byte	0
 2042 0039 03       		.uleb128 0x3
 2043 003a 0E       		.uleb128 0xe
 2044 003b 3A       		.uleb128 0x3a
 2045 003c 0B       		.uleb128 0xb
 2046 003d 3B       		.uleb128 0x3b
ARM GAS  C:\Users\BENAKA~1\AppData\Local\Temp\cchf5c2F.s 			page 41


 2047 003e 05       		.uleb128 0x5
 2048 003f 49       		.uleb128 0x49
 2049 0040 13       		.uleb128 0x13
 2050 0041 00       		.byte	0
 2051 0042 00       		.byte	0
 2052 0043 06       		.uleb128 0x6
 2053 0044 35       		.uleb128 0x35
 2054 0045 00       		.byte	0
 2055 0046 49       		.uleb128 0x49
 2056 0047 13       		.uleb128 0x13
 2057 0048 00       		.byte	0
 2058 0049 00       		.byte	0
 2059 004a 07       		.uleb128 0x7
 2060 004b 01       		.uleb128 0x1
 2061 004c 01       		.byte	0x1
 2062 004d 49       		.uleb128 0x49
 2063 004e 13       		.uleb128 0x13
 2064 004f 01       		.uleb128 0x1
 2065 0050 13       		.uleb128 0x13
 2066 0051 00       		.byte	0
 2067 0052 00       		.byte	0
 2068 0053 08       		.uleb128 0x8
 2069 0054 21       		.uleb128 0x21
 2070 0055 00       		.byte	0
 2071 0056 49       		.uleb128 0x49
 2072 0057 13       		.uleb128 0x13
 2073 0058 2F       		.uleb128 0x2f
 2074 0059 0B       		.uleb128 0xb
 2075 005a 00       		.byte	0
 2076 005b 00       		.byte	0
 2077 005c 09       		.uleb128 0x9
 2078 005d 04       		.uleb128 0x4
 2079 005e 01       		.byte	0x1
 2080 005f 0B       		.uleb128 0xb
 2081 0060 0B       		.uleb128 0xb
 2082 0061 49       		.uleb128 0x49
 2083 0062 13       		.uleb128 0x13
 2084 0063 3A       		.uleb128 0x3a
 2085 0064 0B       		.uleb128 0xb
 2086 0065 3B       		.uleb128 0x3b
 2087 0066 05       		.uleb128 0x5
 2088 0067 01       		.uleb128 0x1
 2089 0068 13       		.uleb128 0x13
 2090 0069 00       		.byte	0
 2091 006a 00       		.byte	0
 2092 006b 0A       		.uleb128 0xa
 2093 006c 28       		.uleb128 0x28
 2094 006d 00       		.byte	0
 2095 006e 03       		.uleb128 0x3
 2096 006f 0E       		.uleb128 0xe
 2097 0070 1C       		.uleb128 0x1c
 2098 0071 0B       		.uleb128 0xb
 2099 0072 00       		.byte	0
 2100 0073 00       		.byte	0
 2101 0074 0B       		.uleb128 0xb
 2102 0075 28       		.uleb128 0x28
 2103 0076 00       		.byte	0
ARM GAS  C:\Users\BENAKA~1\AppData\Local\Temp\cchf5c2F.s 			page 42


 2104 0077 03       		.uleb128 0x3
 2105 0078 0E       		.uleb128 0xe
 2106 0079 1C       		.uleb128 0x1c
 2107 007a 05       		.uleb128 0x5
 2108 007b 00       		.byte	0
 2109 007c 00       		.byte	0
 2110 007d 0C       		.uleb128 0xc
 2111 007e 0F       		.uleb128 0xf
 2112 007f 00       		.byte	0
 2113 0080 0B       		.uleb128 0xb
 2114 0081 0B       		.uleb128 0xb
 2115 0082 49       		.uleb128 0x49
 2116 0083 13       		.uleb128 0x13
 2117 0084 00       		.byte	0
 2118 0085 00       		.byte	0
 2119 0086 0D       		.uleb128 0xd
 2120 0087 13       		.uleb128 0x13
 2121 0088 01       		.byte	0x1
 2122 0089 0B       		.uleb128 0xb
 2123 008a 0B       		.uleb128 0xb
 2124 008b 3A       		.uleb128 0x3a
 2125 008c 0B       		.uleb128 0xb
 2126 008d 3B       		.uleb128 0x3b
 2127 008e 05       		.uleb128 0x5
 2128 008f 01       		.uleb128 0x1
 2129 0090 13       		.uleb128 0x13
 2130 0091 00       		.byte	0
 2131 0092 00       		.byte	0
 2132 0093 0E       		.uleb128 0xe
 2133 0094 0D       		.uleb128 0xd
 2134 0095 00       		.byte	0
 2135 0096 03       		.uleb128 0x3
 2136 0097 0E       		.uleb128 0xe
 2137 0098 3A       		.uleb128 0x3a
 2138 0099 0B       		.uleb128 0xb
 2139 009a 3B       		.uleb128 0x3b
 2140 009b 05       		.uleb128 0x5
 2141 009c 49       		.uleb128 0x49
 2142 009d 13       		.uleb128 0x13
 2143 009e 38       		.uleb128 0x38
 2144 009f 0B       		.uleb128 0xb
 2145 00a0 00       		.byte	0
 2146 00a1 00       		.byte	0
 2147 00a2 0F       		.uleb128 0xf
 2148 00a3 0D       		.uleb128 0xd
 2149 00a4 00       		.byte	0
 2150 00a5 03       		.uleb128 0x3
 2151 00a6 08       		.uleb128 0x8
 2152 00a7 3A       		.uleb128 0x3a
 2153 00a8 0B       		.uleb128 0xb
 2154 00a9 3B       		.uleb128 0x3b
 2155 00aa 05       		.uleb128 0x5
 2156 00ab 49       		.uleb128 0x49
 2157 00ac 13       		.uleb128 0x13
 2158 00ad 38       		.uleb128 0x38
 2159 00ae 0B       		.uleb128 0xb
 2160 00af 00       		.byte	0
ARM GAS  C:\Users\BENAKA~1\AppData\Local\Temp\cchf5c2F.s 			page 43


 2161 00b0 00       		.byte	0
 2162 00b1 10       		.uleb128 0x10
 2163 00b2 13       		.uleb128 0x13
 2164 00b3 01       		.byte	0x1
 2165 00b4 0B       		.uleb128 0xb
 2166 00b5 0B       		.uleb128 0xb
 2167 00b6 3A       		.uleb128 0x3a
 2168 00b7 0B       		.uleb128 0xb
 2169 00b8 3B       		.uleb128 0x3b
 2170 00b9 0B       		.uleb128 0xb
 2171 00ba 01       		.uleb128 0x1
 2172 00bb 13       		.uleb128 0x13
 2173 00bc 00       		.byte	0
 2174 00bd 00       		.byte	0
 2175 00be 11       		.uleb128 0x11
 2176 00bf 0D       		.uleb128 0xd
 2177 00c0 00       		.byte	0
 2178 00c1 03       		.uleb128 0x3
 2179 00c2 0E       		.uleb128 0xe
 2180 00c3 3A       		.uleb128 0x3a
 2181 00c4 0B       		.uleb128 0xb
 2182 00c5 3B       		.uleb128 0x3b
 2183 00c6 0B       		.uleb128 0xb
 2184 00c7 49       		.uleb128 0x49
 2185 00c8 13       		.uleb128 0x13
 2186 00c9 38       		.uleb128 0x38
 2187 00ca 0B       		.uleb128 0xb
 2188 00cb 00       		.byte	0
 2189 00cc 00       		.byte	0
 2190 00cd 12       		.uleb128 0x12
 2191 00ce 2E       		.uleb128 0x2e
 2192 00cf 01       		.byte	0x1
 2193 00d0 3F       		.uleb128 0x3f
 2194 00d1 19       		.uleb128 0x19
 2195 00d2 03       		.uleb128 0x3
 2196 00d3 0E       		.uleb128 0xe
 2197 00d4 3A       		.uleb128 0x3a
 2198 00d5 0B       		.uleb128 0xb
 2199 00d6 3B       		.uleb128 0x3b
 2200 00d7 0B       		.uleb128 0xb
 2201 00d8 27       		.uleb128 0x27
 2202 00d9 19       		.uleb128 0x19
 2203 00da 11       		.uleb128 0x11
 2204 00db 01       		.uleb128 0x1
 2205 00dc 12       		.uleb128 0x12
 2206 00dd 06       		.uleb128 0x6
 2207 00de 40       		.uleb128 0x40
 2208 00df 18       		.uleb128 0x18
 2209 00e0 9642     		.uleb128 0x2116
 2210 00e2 19       		.uleb128 0x19
 2211 00e3 01       		.uleb128 0x1
 2212 00e4 13       		.uleb128 0x13
 2213 00e5 00       		.byte	0
 2214 00e6 00       		.byte	0
 2215 00e7 13       		.uleb128 0x13
 2216 00e8 05       		.uleb128 0x5
 2217 00e9 00       		.byte	0
ARM GAS  C:\Users\BENAKA~1\AppData\Local\Temp\cchf5c2F.s 			page 44


 2218 00ea 03       		.uleb128 0x3
 2219 00eb 0E       		.uleb128 0xe
 2220 00ec 3A       		.uleb128 0x3a
 2221 00ed 0B       		.uleb128 0xb
 2222 00ee 3B       		.uleb128 0x3b
 2223 00ef 0B       		.uleb128 0xb
 2224 00f0 49       		.uleb128 0x49
 2225 00f1 13       		.uleb128 0x13
 2226 00f2 02       		.uleb128 0x2
 2227 00f3 18       		.uleb128 0x18
 2228 00f4 00       		.byte	0
 2229 00f5 00       		.byte	0
 2230 00f6 14       		.uleb128 0x14
 2231 00f7 34       		.uleb128 0x34
 2232 00f8 00       		.byte	0
 2233 00f9 03       		.uleb128 0x3
 2234 00fa 0E       		.uleb128 0xe
 2235 00fb 3A       		.uleb128 0x3a
 2236 00fc 0B       		.uleb128 0xb
 2237 00fd 3B       		.uleb128 0x3b
 2238 00fe 0B       		.uleb128 0xb
 2239 00ff 49       		.uleb128 0x49
 2240 0100 13       		.uleb128 0x13
 2241 0101 02       		.uleb128 0x2
 2242 0102 18       		.uleb128 0x18
 2243 0103 00       		.byte	0
 2244 0104 00       		.byte	0
 2245 0105 15       		.uleb128 0x15
 2246 0106 34       		.uleb128 0x34
 2247 0107 00       		.byte	0
 2248 0108 03       		.uleb128 0x3
 2249 0109 0E       		.uleb128 0xe
 2250 010a 3A       		.uleb128 0x3a
 2251 010b 0B       		.uleb128 0xb
 2252 010c 3B       		.uleb128 0x3b
 2253 010d 0B       		.uleb128 0xb
 2254 010e 49       		.uleb128 0x49
 2255 010f 13       		.uleb128 0x13
 2256 0110 00       		.byte	0
 2257 0111 00       		.byte	0
 2258 0112 16       		.uleb128 0x16
 2259 0113 34       		.uleb128 0x34
 2260 0114 00       		.byte	0
 2261 0115 03       		.uleb128 0x3
 2262 0116 0E       		.uleb128 0xe
 2263 0117 3A       		.uleb128 0x3a
 2264 0118 0B       		.uleb128 0xb
 2265 0119 3B       		.uleb128 0x3b
 2266 011a 0B       		.uleb128 0xb
 2267 011b 49       		.uleb128 0x49
 2268 011c 13       		.uleb128 0x13
 2269 011d 3F       		.uleb128 0x3f
 2270 011e 19       		.uleb128 0x19
 2271 011f 3C       		.uleb128 0x3c
 2272 0120 19       		.uleb128 0x19
 2273 0121 00       		.byte	0
 2274 0122 00       		.byte	0
ARM GAS  C:\Users\BENAKA~1\AppData\Local\Temp\cchf5c2F.s 			page 45


 2275 0123 17       		.uleb128 0x17
 2276 0124 34       		.uleb128 0x34
 2277 0125 00       		.byte	0
 2278 0126 03       		.uleb128 0x3
 2279 0127 08       		.uleb128 0x8
 2280 0128 3A       		.uleb128 0x3a
 2281 0129 0B       		.uleb128 0xb
 2282 012a 3B       		.uleb128 0x3b
 2283 012b 0B       		.uleb128 0xb
 2284 012c 49       		.uleb128 0x49
 2285 012d 13       		.uleb128 0x13
 2286 012e 02       		.uleb128 0x2
 2287 012f 18       		.uleb128 0x18
 2288 0130 00       		.byte	0
 2289 0131 00       		.byte	0
 2290 0132 18       		.uleb128 0x18
 2291 0133 0B       		.uleb128 0xb
 2292 0134 01       		.byte	0x1
 2293 0135 11       		.uleb128 0x11
 2294 0136 01       		.uleb128 0x1
 2295 0137 12       		.uleb128 0x12
 2296 0138 06       		.uleb128 0x6
 2297 0139 01       		.uleb128 0x1
 2298 013a 13       		.uleb128 0x13
 2299 013b 00       		.byte	0
 2300 013c 00       		.byte	0
 2301 013d 19       		.uleb128 0x19
 2302 013e 0B       		.uleb128 0xb
 2303 013f 01       		.byte	0x1
 2304 0140 11       		.uleb128 0x11
 2305 0141 01       		.uleb128 0x1
 2306 0142 12       		.uleb128 0x12
 2307 0143 06       		.uleb128 0x6
 2308 0144 00       		.byte	0
 2309 0145 00       		.byte	0
 2310 0146 1A       		.uleb128 0x1a
 2311 0147 21       		.uleb128 0x21
 2312 0148 00       		.byte	0
 2313 0149 49       		.uleb128 0x49
 2314 014a 13       		.uleb128 0x13
 2315 014b 2F       		.uleb128 0x2f
 2316 014c 18       		.uleb128 0x18
 2317 014d 00       		.byte	0
 2318 014e 00       		.byte	0
 2319 014f 1B       		.uleb128 0x1b
 2320 0150 2E       		.uleb128 0x2e
 2321 0151 00       		.byte	0
 2322 0152 3F       		.uleb128 0x3f
 2323 0153 19       		.uleb128 0x19
 2324 0154 03       		.uleb128 0x3
 2325 0155 0E       		.uleb128 0xe
 2326 0156 3A       		.uleb128 0x3a
 2327 0157 0B       		.uleb128 0xb
 2328 0158 3B       		.uleb128 0x3b
 2329 0159 0B       		.uleb128 0xb
 2330 015a 27       		.uleb128 0x27
 2331 015b 19       		.uleb128 0x19
ARM GAS  C:\Users\BENAKA~1\AppData\Local\Temp\cchf5c2F.s 			page 46


 2332 015c 11       		.uleb128 0x11
 2333 015d 01       		.uleb128 0x1
 2334 015e 12       		.uleb128 0x12
 2335 015f 06       		.uleb128 0x6
 2336 0160 40       		.uleb128 0x40
 2337 0161 18       		.uleb128 0x18
 2338 0162 9742     		.uleb128 0x2117
 2339 0164 19       		.uleb128 0x19
 2340 0165 00       		.byte	0
 2341 0166 00       		.byte	0
 2342 0167 1C       		.uleb128 0x1c
 2343 0168 34       		.uleb128 0x34
 2344 0169 00       		.byte	0
 2345 016a 03       		.uleb128 0x3
 2346 016b 0E       		.uleb128 0xe
 2347 016c 3A       		.uleb128 0x3a
 2348 016d 0B       		.uleb128 0xb
 2349 016e 3B       		.uleb128 0x3b
 2350 016f 05       		.uleb128 0x5
 2351 0170 49       		.uleb128 0x49
 2352 0171 13       		.uleb128 0x13
 2353 0172 3F       		.uleb128 0x3f
 2354 0173 19       		.uleb128 0x19
 2355 0174 3C       		.uleb128 0x3c
 2356 0175 19       		.uleb128 0x19
 2357 0176 00       		.byte	0
 2358 0177 00       		.byte	0
 2359 0178 1D       		.uleb128 0x1d
 2360 0179 26       		.uleb128 0x26
 2361 017a 00       		.byte	0
 2362 017b 49       		.uleb128 0x49
 2363 017c 13       		.uleb128 0x13
 2364 017d 00       		.byte	0
 2365 017e 00       		.byte	0
 2366 017f 1E       		.uleb128 0x1e
 2367 0180 34       		.uleb128 0x34
 2368 0181 00       		.byte	0
 2369 0182 03       		.uleb128 0x3
 2370 0183 0E       		.uleb128 0xe
 2371 0184 3A       		.uleb128 0x3a
 2372 0185 0B       		.uleb128 0xb
 2373 0186 3B       		.uleb128 0x3b
 2374 0187 0B       		.uleb128 0xb
 2375 0188 49       		.uleb128 0x49
 2376 0189 13       		.uleb128 0x13
 2377 018a 3F       		.uleb128 0x3f
 2378 018b 19       		.uleb128 0x19
 2379 018c 02       		.uleb128 0x2
 2380 018d 18       		.uleb128 0x18
 2381 018e 00       		.byte	0
 2382 018f 00       		.byte	0
 2383 0190 00       		.byte	0
 2384              		.section	.debug_aranges,"",%progbits
 2385 0000 3C000000 		.4byte	0x3c
 2386 0004 0200     		.2byte	0x2
 2387 0006 00000000 		.4byte	.Ldebug_info0
 2388 000a 04       		.byte	0x4
ARM GAS  C:\Users\BENAKA~1\AppData\Local\Temp\cchf5c2F.s 			page 47


 2389 000b 00       		.byte	0
 2390 000c 0000     		.2byte	0
 2391 000e 0000     		.2byte	0
 2392 0010 00000000 		.4byte	.LFB36
 2393 0014 34000000 		.4byte	.LFE36-.LFB36
 2394 0018 00000000 		.4byte	.LFB37
 2395 001c 30000000 		.4byte	.LFE37-.LFB37
 2396 0020 00000000 		.4byte	.LFB38
 2397 0024 60050000 		.4byte	.LFE38-.LFB38
 2398 0028 00000000 		.4byte	.LFB39
 2399 002c 1C000000 		.4byte	.LFE39-.LFB39
 2400 0030 00000000 		.4byte	.LFB40
 2401 0034 1C000000 		.4byte	.LFE40-.LFB40
 2402 0038 00000000 		.4byte	0
 2403 003c 00000000 		.4byte	0
 2404              		.section	.debug_ranges,"",%progbits
 2405              	.Ldebug_ranges0:
 2406 0000 00000000 		.4byte	.LFB36
 2407 0004 34000000 		.4byte	.LFE36
 2408 0008 00000000 		.4byte	.LFB37
 2409 000c 30000000 		.4byte	.LFE37
 2410 0010 00000000 		.4byte	.LFB38
 2411 0014 60050000 		.4byte	.LFE38
 2412 0018 00000000 		.4byte	.LFB39
 2413 001c 1C000000 		.4byte	.LFE39
 2414 0020 00000000 		.4byte	.LFB40
 2415 0024 1C000000 		.4byte	.LFE40
 2416 0028 00000000 		.4byte	0
 2417 002c 00000000 		.4byte	0
 2418              		.section	.debug_line,"",%progbits
 2419              	.Ldebug_line0:
 2420 0000 66020000 		.section	.debug_str,"MS",%progbits,1
 2420      0200A101 
 2420      00000201 
 2420      FB0E0D00 
 2420      01010101 
 2421              	.LASF61:
 2422 0000 4359424C 		.ascii	"CYBLE_EVT_GATTC_READ_BLOB_RSP\000"
 2422      455F4556 
 2422      545F4741 
 2422      5454435F 
 2422      52454144 
 2423              	.LASF165:
 2424 001e 636F756E 		.ascii	"count\000"
 2424      7400
 2425              	.LASF12:
 2426 0024 75696E74 		.ascii	"uint16\000"
 2426      313600
 2427              	.LASF83:
 2428 002b 4359424C 		.ascii	"CYBLE_EVT_L2CAP_CBFC_DATA_READ\000"
 2428      455F4556 
 2428      545F4C32 
 2428      4341505F 
 2428      43424643 
 2429              	.LASF129:
 2430 004a 4359424C 		.ascii	"CYBLE_CONN_HANDLE_T\000"
 2430      455F434F 
ARM GAS  C:\Users\BENAKA~1\AppData\Local\Temp\cchf5c2F.s 			page 48


 2430      4E4E5F48 
 2430      414E444C 
 2430      455F5400 
 2431              	.LASF136:
 2432 005e 636F6E6E 		.ascii	"connHandle\000"
 2432      48616E64 
 2432      6C6500
 2433              	.LASF95:
 2434 0069 4359424C 		.ascii	"CYBLE_ERROR_MEMORY_ALLOCATION_FAILED\000"
 2434      455F4552 
 2434      524F525F 
 2434      4D454D4F 
 2434      52595F41 
 2435              	.LASF37:
 2436 008e 4359424C 		.ascii	"CYBLE_EVT_GAP_CONNECTION_UPDATE_COMPLETE\000"
 2436      455F4556 
 2436      545F4741 
 2436      505F434F 
 2436      4E4E4543 
 2437              	.LASF107:
 2438 00b7 4359424C 		.ascii	"CYBLE_ERROR_L2CAP_PSM_NOT_REGISTERED\000"
 2438      455F4552 
 2438      524F525F 
 2438      4C324341 
 2438      505F5053 
 2439              	.LASF116:
 2440 00dc 4359424C 		.ascii	"CYBLE_ERROR_UNSUPPORTED_FEATURE_OR_PARAMETER_VALUE\000"
 2440      455F4552 
 2440      524F525F 
 2440      554E5355 
 2440      50504F52 
 2441              	.LASF25:
 2442 010f 4359424C 		.ascii	"CYBLE_EVT_STACK_BUSY_STATUS\000"
 2442      455F4556 
 2442      545F5354 
 2442      41434B5F 
 2442      42555359 
 2443              	.LASF62:
 2444 012b 4359424C 		.ascii	"CYBLE_EVT_GATTC_READ_MULTI_RSP\000"
 2444      455F4556 
 2444      545F4741 
 2444      5454435F 
 2444      52454144 
 2445              	.LASF9:
 2446 014a 5F5F7569 		.ascii	"__uint8_t\000"
 2446      6E74385F 
 2446      7400
 2447              	.LASF22:
 2448 0154 4359424C 		.ascii	"CYBLE_EVT_TIMEOUT\000"
 2448      455F4556 
 2448      545F5449 
 2448      4D454F55 
 2448      5400
 2449              	.LASF4:
 2450 0166 6C6F6E67 		.ascii	"long int\000"
 2450      20696E74 
 2450      00
ARM GAS  C:\Users\BENAKA~1\AppData\Local\Temp\cchf5c2F.s 			page 49


 2451              	.LASF115:
 2452 016f 4359424C 		.ascii	"CYBLE_ERROR_HARDWARE_FAILURE\000"
 2452      455F4552 
 2452      524F525F 
 2452      48415244 
 2452      57415245 
 2453              	.LASF151:
 2454 018c 57726974 		.ascii	"WriteArray\000"
 2454      65417272 
 2454      617900
 2455              	.LASF7:
 2456 0197 6C6F6E67 		.ascii	"long long unsigned int\000"
 2456      206C6F6E 
 2456      6720756E 
 2456      7369676E 
 2456      65642069 
 2457              	.LASF131:
 2458 01ae 4359424C 		.ascii	"CYBLE_GATT_VALUE_T\000"
 2458      455F4741 
 2458      54545F56 
 2458      414C5545 
 2458      5F5400
 2459              	.LASF24:
 2460 01c1 4359424C 		.ascii	"CYBLE_EVT_HCI_STATUS\000"
 2460      455F4556 
 2460      545F4843 
 2460      495F5354 
 2460      41545553 
 2461              	.LASF38:
 2462 01d6 4359424C 		.ascii	"CYBLE_EVT_GAPC_SCAN_START_STOP\000"
 2462      455F4556 
 2462      545F4741 
 2462      50435F53 
 2462      43414E5F 
 2463              	.LASF87:
 2464 01f5 4359424C 		.ascii	"CYBLE_EVT_PENDING_FLASH_WRITE\000"
 2464      455F4556 
 2464      545F5045 
 2464      4E44494E 
 2464      475F464C 
 2465              	.LASF162:
 2466 0213 74657374 		.ascii	"test2\000"
 2466      3200
 2467              	.LASF163:
 2468 0219 44697361 		.ascii	"DisableUartRxInt\000"
 2468      626C6555 
 2468      61727452 
 2468      78496E74 
 2468      00
 2469              	.LASF104:
 2470 022a 4359424C 		.ascii	"CYBLE_ERROR_SEC_FAILED\000"
 2470      455F4552 
 2470      524F525F 
 2470      5345435F 
 2470      4641494C 
 2471              	.LASF36:
 2472 0241 4359424C 		.ascii	"CYBLE_EVT_GAP_ENCRYPT_CHANGE\000"
ARM GAS  C:\Users\BENAKA~1\AppData\Local\Temp\cchf5c2F.s 			page 50


 2472      455F4556 
 2472      545F4741 
 2472      505F454E 
 2472      43525950 
 2473              	.LASF40:
 2474 025e 4359424C 		.ascii	"CYBLE_EVT_GAP_NUMERIC_COMPARISON_REQUEST\000"
 2474      455F4556 
 2474      545F4741 
 2474      505F4E55 
 2474      4D455249 
 2475              	.LASF6:
 2476 0287 6C6F6E67 		.ascii	"long long int\000"
 2476      206C6F6E 
 2476      6720696E 
 2476      7400
 2477              	.LASF0:
 2478 0295 7369676E 		.ascii	"signed char\000"
 2478      65642063 
 2478      68617200 
 2479              	.LASF21:
 2480 02a1 4359424C 		.ascii	"CYBLE_EVT_STACK_ON\000"
 2480      455F4556 
 2480      545F5354 
 2480      41434B5F 
 2480      4F4E00
 2481              	.LASF5:
 2482 02b4 6C6F6E67 		.ascii	"long unsigned int\000"
 2482      20756E73 
 2482      69676E65 
 2482      6420696E 
 2482      7400
 2483              	.LASF112:
 2484 02c6 4359424C 		.ascii	"CYBLE_ERROR_DEVICE_ALREADY_EXISTS\000"
 2484      455F4552 
 2484      524F525F 
 2484      44455649 
 2484      43455F41 
 2485              	.LASF99:
 2486 02e8 4359424C 		.ascii	"CYBLE_ERROR_NO_DEVICE_ENTITY\000"
 2486      455F4552 
 2486      524F525F 
 2486      4E4F5F44 
 2486      45564943 
 2487              	.LASF130:
 2488 0305 61637475 		.ascii	"actualLen\000"
 2488      616C4C65 
 2488      6E00
 2489              	.LASF28:
 2490 030f 4359424C 		.ascii	"CYBLE_EVT_GAP_AUTH_REQ\000"
 2490      455F4556 
 2490      545F4741 
 2490      505F4155 
 2490      54485F52 
 2491              	.LASF60:
 2492 0326 4359424C 		.ascii	"CYBLE_EVT_GATTC_READ_RSP\000"
 2492      455F4556 
 2492      545F4741 
ARM GAS  C:\Users\BENAKA~1\AppData\Local\Temp\cchf5c2F.s 			page 51


 2492      5454435F 
 2492      52454144 
 2493              	.LASF123:
 2494 033f 4359424C 		.ascii	"CYBLE_ERROR_INVALID_STATE\000"
 2494      455F4552 
 2494      524F525F 
 2494      494E5641 
 2494      4C49445F 
 2495              	.LASF65:
 2496 0359 4359424C 		.ascii	"CYBLE_EVT_GATTS_WRITE_CMD_REQ\000"
 2496      455F4556 
 2496      545F4741 
 2496      5454535F 
 2496      57524954 
 2497              	.LASF147:
 2498 0377 48616E64 		.ascii	"HandleUartRxTraffic\000"
 2498      6C655561 
 2498      72745278 
 2498      54726166 
 2498      66696300 
 2499              	.LASF82:
 2500 038b 4359424C 		.ascii	"CYBLE_EVT_L2CAP_CBFC_DISCONN_CNF\000"
 2500      455F4556 
 2500      545F4C32 
 2500      4341505F 
 2500      43424643 
 2501              	.LASF33:
 2502 03ac 4359424C 		.ascii	"CYBLE_EVT_GAPP_ADVERTISEMENT_START_STOP\000"
 2502      455F4556 
 2502      545F4741 
 2502      50505F41 
 2502      44564552 
 2503              	.LASF110:
 2504 03d4 4359424C 		.ascii	"CYBLE_ERROR_L2CAP_PSM_NOT_IN_RANGE\000"
 2504      455F4552 
 2504      524F525F 
 2504      4C324341 
 2504      505F5053 
 2505              	.LASF11:
 2506 03f7 75696E74 		.ascii	"uint8\000"
 2506      3800
 2507              	.LASF150:
 2508 03fd 72657375 		.ascii	"result\000"
 2508      6C7400
 2509              	.LASF68:
 2510 0404 4359424C 		.ascii	"CYBLE_EVT_GATTC_EXEC_WRITE_RSP\000"
 2510      455F4556 
 2510      545F4741 
 2510      5454435F 
 2510      45584543 
 2511              	.LASF15:
 2512 0423 646F7562 		.ascii	"double\000"
 2512      6C6500
 2513              	.LASF142:
 2514 042a 4359424C 		.ascii	"CYBLE_SRVI_CUSTOMS_END\000"
 2514      455F5352 
 2514      56495F43 
ARM GAS  C:\Users\BENAKA~1\AppData\Local\Temp\cchf5c2F.s 			page 52


 2514      5553544F 
 2514      4D535F45 
 2515              	.LASF93:
 2516 0441 4359424C 		.ascii	"CYBLE_ERROR_INVALID_PARAMETER\000"
 2516      455F4552 
 2516      524F525F 
 2516      494E5641 
 2516      4C49445F 
 2517              	.LASF13:
 2518 045f 75696E74 		.ascii	"uint32\000"
 2518      333200
 2519              	.LASF91:
 2520 0466 4359424C 		.ascii	"CYBLE_EVT_MAX\000"
 2520      455F4556 
 2520      545F4D41 
 2520      5800
 2521              	.LASF92:
 2522 0474 4359424C 		.ascii	"CYBLE_ERROR_OK\000"
 2522      455F4552 
 2522      524F525F 
 2522      4F4B00
 2523              	.LASF127:
 2524 0483 62644861 		.ascii	"bdHandle\000"
 2524      6E646C65 
 2524      00
 2525              	.LASF133:
 2526 048c 61747472 		.ascii	"attrHandle\000"
 2526      48616E64 
 2526      6C6500
 2527              	.LASF86:
 2528 0497 4359424C 		.ascii	"CYBLE_EVT_L2CAP_CBFC_DATA_WRITE_IND\000"
 2528      455F4556 
 2528      545F4C32 
 2528      4341505F 
 2528      43424643 
 2529              	.LASF154:
 2530 04bb 75617274 		.ascii	"uartTxDataLength\000"
 2530      54784461 
 2530      74614C65 
 2530      6E677468 
 2530      00
 2531              	.LASF48:
 2532 04cc 4359424C 		.ascii	"CYBLE_EVT_GAP_SCAN_REQ_RECVD\000"
 2532      455F4556 
 2532      545F4741 
 2532      505F5343 
 2532      414E5F52 
 2533              	.LASF159:
 2534 04e9 74656D70 		.ascii	"temp\000"
 2534      00
 2535              	.LASF172:
 2536 04ee 57726974 		.ascii	"WriteArray3\000"
 2536      65417272 
 2536      61793300 
 2537              	.LASF73:
 2538 04fa 4359424C 		.ascii	"CYBLE_EVT_GATTC_STOP_CMD_COMPLETE\000"
 2538      455F4556 
ARM GAS  C:\Users\BENAKA~1\AppData\Local\Temp\cchf5c2F.s 			page 53


 2538      545F4741 
 2538      5454435F 
 2538      53544F50 
 2539              	.LASF176:
 2540 051c 6170705F 		.ascii	"app_UART.c\000"
 2540      55415254 
 2540      2E6300
 2541              	.LASF164:
 2542 0527 456E6162 		.ascii	"EnableUartRxInt\000"
 2542      6C655561 
 2542      72745278 
 2542      496E7400 
 2543              	.LASF158:
 2544 0537 436F756E 		.ascii	"CountString\000"
 2544      74537472 
 2544      696E6700 
 2545              	.LASF88:
 2546 0543 4359424C 		.ascii	"CYBLE_EVT_LE_PING_AUTH_TIMEOUT\000"
 2546      455F4556 
 2546      545F4C45 
 2546      5F50494E 
 2546      475F4155 
 2547              	.LASF106:
 2548 0562 4359424C 		.ascii	"CYBLE_ERROR_L2CAP_PSM_ALREADY_REGISTERED\000"
 2548      455F4552 
 2548      524F525F 
 2548      4C324341 
 2548      505F5053 
 2549              	.LASF167:
 2550 058b 6D747553 		.ascii	"mtuSize\000"
 2550      697A6500 
 2551              	.LASF47:
 2552 0593 4359424C 		.ascii	"CYBLE_EVT_GAP_CONN_ESTB\000"
 2552      455F4556 
 2552      545F4741 
 2552      505F434F 
 2552      4E4E5F45 
 2553              	.LASF63:
 2554 05ab 4359424C 		.ascii	"CYBLE_EVT_GATTS_WRITE_REQ\000"
 2554      455F4556 
 2554      545F4741 
 2554      5454535F 
 2554      57524954 
 2555              	.LASF55:
 2556 05c5 4359424C 		.ascii	"CYBLE_EVT_GATTC_XCHNG_MTU_RSP\000"
 2556      455F4556 
 2556      545F4741 
 2556      5454435F 
 2556      5843484E 
 2557              	.LASF72:
 2558 05e3 4359424C 		.ascii	"CYBLE_EVT_GATTS_DATA_SIGNED_CMD_REQ\000"
 2558      455F4556 
 2558      545F4741 
 2558      5454535F 
 2558      44415441 
 2559              	.LASF75:
 2560 0607 4359424C 		.ascii	"CYBLE_EVT_GATTC_LONG_PROCEDURE_END\000"
ARM GAS  C:\Users\BENAKA~1\AppData\Local\Temp\cchf5c2F.s 			page 54


 2560      455F4556 
 2560      545F4741 
 2560      5454435F 
 2560      4C4F4E47 
 2561              	.LASF109:
 2562 062a 4359424C 		.ascii	"CYBLE_ERROR_L2CAP_CHANNEL_NOT_FOUND\000"
 2562      455F4552 
 2562      524F525F 
 2562      4C324341 
 2562      505F4348 
 2563              	.LASF177:
 2564 064e 433A5C55 		.ascii	"C:\\Users\\Benakapoi\\Downloads\\PSoC-4-BLE-master\\"
 2564      73657273 
 2564      5C42656E 
 2564      616B6170 
 2564      6F695C44 
 2565 067d 50536F43 		.ascii	"PSoC-4-BLE-master\\100_Projects_in_100_Days\\Day020"
 2565      2D342D42 
 2565      4C452D6D 
 2565      61737465 
 2565      725C3130 
 2566 06ae 5F424C45 		.ascii	"_BLE_UART\\UART_to_BLE_central\\Archive\\2\\UART_to"
 2566      5F554152 
 2566      545C5541 
 2566      52545F74 
 2566      6F5F424C 
 2567 06dd 5F424C45 		.ascii	"_BLE_central\\UART_to_BLE_central.cydsn\000"
 2567      5F63656E 
 2567      7472616C 
 2567      5C554152 
 2567      545F746F 
 2568              	.LASF120:
 2569 0704 4359424C 		.ascii	"CYBLE_ERROR_NTF_DISABLED\000"
 2569      455F4552 
 2569      524F525F 
 2569      4E54465F 
 2569      44495341 
 2570              	.LASF20:
 2571 071d 4359424C 		.ascii	"CYBLE_EVT_HOST_INVALID\000"
 2571      455F4556 
 2571      545F484F 
 2571      53545F49 
 2571      4E56414C 
 2572              	.LASF58:
 2573 0734 4359424C 		.ascii	"CYBLE_EVT_GATTC_FIND_INFO_RSP\000"
 2573      455F4556 
 2573      545F4741 
 2573      5454435F 
 2573      46494E44 
 2574              	.LASF26:
 2575 0752 4359424C 		.ascii	"CYBLE_EVT_MEMORY_REQUEST\000"
 2575      455F4556 
 2575      545F4D45 
 2575      4D4F5259 
 2575      5F524551 
 2576              	.LASF67:
 2577 076b 4359424C 		.ascii	"CYBLE_EVT_GATTS_EXEC_WRITE_REQ\000"
ARM GAS  C:\Users\BENAKA~1\AppData\Local\Temp\cchf5c2F.s 			page 55


 2577      455F4556 
 2577      545F4741 
 2577      5454535F 
 2577      45584543 
 2578              	.LASF29:
 2579 078a 4359424C 		.ascii	"CYBLE_EVT_GAP_PASSKEY_ENTRY_REQUEST\000"
 2579      455F4556 
 2579      545F4741 
 2579      505F5041 
 2579      53534B45 
 2580              	.LASF34:
 2581 07ae 4359424C 		.ascii	"CYBLE_EVT_GAP_DEVICE_CONNECTED\000"
 2581      455F4556 
 2581      545F4741 
 2581      505F4445 
 2581      56494345 
 2582              	.LASF148:
 2583 07cd 75617274 		.ascii	"uartRxDataNotification\000"
 2583      52784461 
 2583      74614E6F 
 2583      74696669 
 2583      63617469 
 2584              	.LASF49:
 2585 07e4 4359424C 		.ascii	"CYBLE_EVT_GAP_AUTH_REQ_REPLY_ERR\000"
 2585      455F4556 
 2585      545F4741 
 2585      505F4155 
 2585      54485F52 
 2586              	.LASF76:
 2587 0805 4359424C 		.ascii	"CYBLE_EVT_L2CAP_CONN_PARAM_UPDATE_REQ\000"
 2587      455F4556 
 2587      545F4C32 
 2587      4341505F 
 2587      434F4E4E 
 2588              	.LASF175:
 2589 082b 474E5520 		.ascii	"GNU C11 5.4.1 20160609 (release) [ARM/embedded-5-br"
 2589      43313120 
 2589      352E342E 
 2589      31203230 
 2589      31363036 
 2590 085e 616E6368 		.ascii	"anch revision 237715] -mcpu=cortex-m0 -mthumb -g -O"
 2590      20726576 
 2590      6973696F 
 2590      6E203233 
 2590      37373135 
 2591 0891 30202D66 		.ascii	"0 -ffunction-sections -ffat-lto-objects\000"
 2591      66756E63 
 2591      74696F6E 
 2591      2D736563 
 2591      74696F6E 
 2592              	.LASF52:
 2593 08b9 4359424C 		.ascii	"CYBLE_EVT_GATT_CONNECT_IND\000"
 2593      455F4556 
 2593      545F4741 
 2593      54545F43 
 2593      4F4E4E45 
 2594              	.LASF146:
ARM GAS  C:\Users\BENAKA~1\AppData\Local\Temp\cchf5c2F.s 			page 56


 2595 08d4 53746F72 		.ascii	"StoreInFlash\000"
 2595      65496E46 
 2595      6C617368 
 2595      00
 2596              	.LASF128:
 2597 08e1 61747449 		.ascii	"attId\000"
 2597      6400
 2598              	.LASF78:
 2599 08e7 4359424C 		.ascii	"CYBLE_EVT_L2CAP_COMMAND_REJ\000"
 2599      455F4556 
 2599      545F4C32 
 2599      4341505F 
 2599      434F4D4D 
 2600              	.LASF17:
 2601 0903 72656733 		.ascii	"reg32\000"
 2601      3200
 2602              	.LASF27:
 2603 0909 4359424C 		.ascii	"CYBLE_EVT_GAPC_SCAN_PROGRESS_RESULT\000"
 2603      455F4556 
 2603      545F4741 
 2603      50435F53 
 2603      43414E5F 
 2604              	.LASF156:
 2605 092d 75617274 		.ascii	"uartTxDataWriteCmd\000"
 2605      54784461 
 2605      74615772 
 2605      69746543 
 2605      6D6400
 2606              	.LASF50:
 2607 0940 4359424C 		.ascii	"CYBLE_EVT_GAP_SMP_LOC_P256_KEYS_GEN_AND_SET_COMPLET"
 2607      455F4556 
 2607      545F4741 
 2607      505F534D 
 2607      505F4C4F 
 2608 0973 4500     		.ascii	"E\000"
 2609              	.LASF119:
 2610 0975 4359424C 		.ascii	"CYBLE_ERROR_MAX\000"
 2610      455F4552 
 2610      524F525F 
 2610      4D415800 
 2611              	.LASF79:
 2612 0985 4359424C 		.ascii	"CYBLE_EVT_L2CAP_CBFC_CONN_IND\000"
 2612      455F4556 
 2612      545F4C32 
 2612      4341505F 
 2612      43424643 
 2613              	.LASF57:
 2614 09a3 4359424C 		.ascii	"CYBLE_EVT_GATTC_READ_BY_TYPE_RSP\000"
 2614      455F4556 
 2614      545F4741 
 2614      5454435F 
 2614      52454144 
 2615              	.LASF149:
 2616 09c4 48616E64 		.ascii	"HandleUartTxTraffic\000"
 2616      6C655561 
 2616      72745478 
 2616      54726166 
ARM GAS  C:\Users\BENAKA~1\AppData\Local\Temp\cchf5c2F.s 			page 57


 2616      66696300 
 2617              	.LASF171:
 2618 09d8 57726974 		.ascii	"WriteArray2\000"
 2618      65417272 
 2618      61793200 
 2619              	.LASF19:
 2620 09e4 73697A65 		.ascii	"sizetype\000"
 2620      74797065 
 2620      00
 2621              	.LASF173:
 2622 09ed 52656164 		.ascii	"ReadArray\000"
 2622      41727261 
 2622      7900
 2623              	.LASF32:
 2624 09f7 4359424C 		.ascii	"CYBLE_EVT_GAP_AUTH_FAILED\000"
 2624      455F4556 
 2624      545F4741 
 2624      505F4155 
 2624      54485F46 
 2625              	.LASF166:
 2626 0a11 6379426C 		.ascii	"cyBle_connHandle\000"
 2626      655F636F 
 2626      6E6E4861 
 2626      6E646C65 
 2626      00
 2627              	.LASF64:
 2628 0a22 4359424C 		.ascii	"CYBLE_EVT_GATTC_WRITE_RSP\000"
 2628      455F4556 
 2628      545F4741 
 2628      5454435F 
 2628      57524954 
 2629              	.LASF45:
 2630 0a3c 4359424C 		.ascii	"CYBLE_EVT_GAPC_DIRECT_ADV_REPORT\000"
 2630      455F4556 
 2630      545F4741 
 2630      50435F44 
 2630      49524543 
 2631              	.LASF174:
 2632 0a5d 54656D70 		.ascii	"Temp\000"
 2632      00
 2633              	.LASF43:
 2634 0a62 4359424C 		.ascii	"CYBLE_EVT_GAP_DATA_LENGTH_CHANGE\000"
 2634      455F4556 
 2634      545F4741 
 2634      505F4441 
 2634      54415F4C 
 2635              	.LASF31:
 2636 0a83 4359424C 		.ascii	"CYBLE_EVT_GAP_AUTH_COMPLETE\000"
 2636      455F4556 
 2636      545F4741 
 2636      505F4155 
 2636      54485F43 
 2637              	.LASF169:
 2638 0a9f 72784368 		.ascii	"rxCharHandle\000"
 2638      61724861 
 2638      6E646C65 
 2638      00
ARM GAS  C:\Users\BENAKA~1\AppData\Local\Temp\cchf5c2F.s 			page 58


 2639              	.LASF125:
 2640 0aac 4359424C 		.ascii	"CYBLE_API_RESULT_T\000"
 2640      455F4150 
 2640      495F5245 
 2640      53554C54 
 2640      5F5400
 2641              	.LASF69:
 2642 0abf 4359424C 		.ascii	"CYBLE_EVT_GATTC_HANDLE_VALUE_NTF\000"
 2642      455F4556 
 2642      545F4741 
 2642      5454435F 
 2642      48414E44 
 2643              	.LASF121:
 2644 0ae0 4359424C 		.ascii	"CYBLE_ERROR_IND_DISABLED\000"
 2644      455F4552 
 2644      524F525F 
 2644      494E445F 
 2644      44495341 
 2645              	.LASF134:
 2646 0af9 4359424C 		.ascii	"CYBLE_GATT_HANDLE_VALUE_PAIR_T\000"
 2646      455F4741 
 2646      54545F48 
 2646      414E444C 
 2646      455F5641 
 2647              	.LASF161:
 2648 0b18 72657375 		.ascii	"resultString\000"
 2648      6C745374 
 2648      72696E67 
 2648      00
 2649              	.LASF80:
 2650 0b25 4359424C 		.ascii	"CYBLE_EVT_L2CAP_CBFC_CONN_CNF\000"
 2650      455F4556 
 2650      545F4C32 
 2650      4341505F 
 2650      43424643 
 2651              	.LASF56:
 2652 0b43 4359424C 		.ascii	"CYBLE_EVT_GATTC_READ_BY_GROUP_TYPE_RSP\000"
 2652      455F4556 
 2652      545F4741 
 2652      5454435F 
 2652      52454144 
 2653              	.LASF14:
 2654 0b6a 666C6F61 		.ascii	"float\000"
 2654      7400
 2655              	.LASF102:
 2656 0b70 4359424C 		.ascii	"CYBLE_ERROR_TX_POWER_READ\000"
 2656      455F4552 
 2656      524F525F 
 2656      54585F50 
 2656      4F574552 
 2657              	.LASF122:
 2658 0b8a 4359424C 		.ascii	"CYBLE_ERROR_CHAR_IS_NOT_DISCOVERED\000"
 2658      455F4552 
 2658      524F525F 
 2658      43484152 
 2658      5F49535F 
 2659              	.LASF1:
ARM GAS  C:\Users\BENAKA~1\AppData\Local\Temp\cchf5c2F.s 			page 59


 2660 0bad 756E7369 		.ascii	"unsigned char\000"
 2660      676E6564 
 2660      20636861 
 2660      7200
 2661              	.LASF41:
 2662 0bbb 4359424C 		.ascii	"CYBLE_EVT_GAP_KEYPRESS_NOTIFICATION\000"
 2662      455F4556 
 2662      545F4741 
 2662      505F4B45 
 2662      59505245 
 2663              	.LASF2:
 2664 0bdf 73686F72 		.ascii	"short int\000"
 2664      7420696E 
 2664      7400
 2665              	.LASF70:
 2666 0be9 4359424C 		.ascii	"CYBLE_EVT_GATTC_HANDLE_VALUE_IND\000"
 2666      455F4556 
 2666      545F4741 
 2666      5454435F 
 2666      48414E44 
 2667              	.LASF89:
 2668 0c0a 4359424C 		.ascii	"CYBLE_EVT_HCI_PKT\000"
 2668      455F4556 
 2668      545F4843 
 2668      495F504B 
 2668      5400
 2669              	.LASF98:
 2670 0c1c 4359424C 		.ascii	"CYBLE_ERROR_NO_CONNECTION\000"
 2670      455F4552 
 2670      524F525F 
 2670      4E4F5F43 
 2670      4F4E4E45 
 2671              	.LASF97:
 2672 0c36 4359424C 		.ascii	"CYBLE_ERROR_OOB_NOT_AVAILABLE\000"
 2672      455F4552 
 2672      524F525F 
 2672      4F4F425F 
 2672      4E4F545F 
 2673              	.LASF117:
 2674 0c54 4359424C 		.ascii	"CYBLE_ERROR_FLASH_WRITE\000"
 2674      455F4552 
 2674      524F525F 
 2674      464C4153 
 2674      485F5752 
 2675              	.LASF66:
 2676 0c6c 4359424C 		.ascii	"CYBLE_EVT_GATTS_PREP_WRITE_REQ\000"
 2676      455F4556 
 2676      545F4741 
 2676      5454535F 
 2676      50524550 
 2677              	.LASF132:
 2678 0c8b 76616C75 		.ascii	"value\000"
 2678      6500
 2679              	.LASF71:
 2680 0c91 4359424C 		.ascii	"CYBLE_EVT_GATTS_HANDLE_VALUE_CNF\000"
 2680      455F4556 
 2680      545F4741 
ARM GAS  C:\Users\BENAKA~1\AppData\Local\Temp\cchf5c2F.s 			page 60


 2680      5454535F 
 2680      48414E44 
 2681              	.LASF51:
 2682 0cb2 4359424C 		.ascii	"CYBLE_EVT_GATTC_ERROR_RSP\000"
 2682      455F4556 
 2682      545F4741 
 2682      5454435F 
 2682      4552524F 
 2683              	.LASF46:
 2684 0ccc 4359424C 		.ascii	"CYBLE_EVT_GAP_SMP_NEGOTIATED_AUTH_INFO\000"
 2684      455F4556 
 2684      545F4741 
 2684      505F534D 
 2684      505F4E45 
 2685              	.LASF143:
 2686 0cf3 4359424C 		.ascii	"CYBLE_SRVI_COUNT\000"
 2686      455F5352 
 2686      56495F43 
 2686      4F554E54 
 2686      00
 2687              	.LASF139:
 2688 0d04 4359424C 		.ascii	"CYBLE_SRVI_GAP\000"
 2688      455F5352 
 2688      56495F47 
 2688      415000
 2689              	.LASF138:
 2690 0d13 4359424C 		.ascii	"CYBLE_GATTC_HANDLE_VALUE_NTF_PARAM_T\000"
 2690      455F4741 
 2690      5454435F 
 2690      48414E44 
 2690      4C455F56 
 2691              	.LASF124:
 2692 0d38 4359424C 		.ascii	"CYBLE_ERROR_STACK_BUSY\000"
 2692      455F4552 
 2692      524F525F 
 2692      53544143 
 2692      4B5F4255 
 2693              	.LASF16:
 2694 0d4f 63686172 		.ascii	"char\000"
 2694      00
 2695              	.LASF18:
 2696 0d54 6C6F6E67 		.ascii	"long double\000"
 2696      20646F75 
 2696      626C6500 
 2697              	.LASF145:
 2698 0d60 6C656E67 		.ascii	"length\000"
 2698      746800
 2699              	.LASF103:
 2700 0d67 4359424C 		.ascii	"CYBLE_ERROR_BT_ON_NOT_COMPLETED\000"
 2700      455F4552 
 2700      524F525F 
 2700      42545F4F 
 2700      4E5F4E4F 
 2701              	.LASF141:
 2702 0d87 4359424C 		.ascii	"CYBLE_SRVI_CUSTOMS\000"
 2702      455F5352 
 2702      56495F43 
ARM GAS  C:\Users\BENAKA~1\AppData\Local\Temp\cchf5c2F.s 			page 61


 2702      5553544F 
 2702      4D5300
 2703              	.LASF35:
 2704 0d9a 4359424C 		.ascii	"CYBLE_EVT_GAP_DEVICE_DISCONNECTED\000"
 2704      455F4556 
 2704      545F4741 
 2704      505F4445 
 2704      56494345 
 2705              	.LASF8:
 2706 0dbc 756E7369 		.ascii	"unsigned int\000"
 2706      676E6564 
 2706      20696E74 
 2706      00
 2707              	.LASF140:
 2708 0dc9 4359424C 		.ascii	"CYBLE_SRVI_GATT\000"
 2708      455F5352 
 2708      56495F47 
 2708      41545400 
 2709              	.LASF74:
 2710 0dd9 4359424C 		.ascii	"CYBLE_EVT_GATTS_READ_CHAR_VAL_ACCESS_REQ\000"
 2710      455F4556 
 2710      545F4741 
 2710      5454535F 
 2710      52454144 
 2711              	.LASF153:
 2712 0e02 696E6465 		.ascii	"index\000"
 2712      7800
 2713              	.LASF84:
 2714 0e08 4359424C 		.ascii	"CYBLE_EVT_L2CAP_CBFC_RX_CREDIT_IND\000"
 2714      455F4556 
 2714      545F4C32 
 2714      4341505F 
 2714      43424643 
 2715              	.LASF157:
 2716 0e2b 74657374 		.ascii	"test\000"
 2716      00
 2717              	.LASF135:
 2718 0e30 4359424C 		.ascii	"CYBLE_GATTC_WRITE_CMD_REQ_T\000"
 2718      455F4741 
 2718      5454435F 
 2718      57524954 
 2718      455F434D 
 2719              	.LASF85:
 2720 0e4c 4359424C 		.ascii	"CYBLE_EVT_L2CAP_CBFC_TX_CREDIT_IND\000"
 2720      455F4556 
 2720      545F4C32 
 2720      4341505F 
 2720      43424643 
 2721              	.LASF113:
 2722 0e6f 4359424C 		.ascii	"CYBLE_ERROR_FLASH_WRITE_NOT_PERMITED\000"
 2722      455F4552 
 2722      524F525F 
 2722      464C4153 
 2722      485F5752 
 2723              	.LASF108:
 2724 0e94 4359424C 		.ascii	"CYBLE_ERROR_L2CAP_CONNECTION_ENTITY_NOT_FOUND\000"
 2724      455F4552 
ARM GAS  C:\Users\BENAKA~1\AppData\Local\Temp\cchf5c2F.s 			page 62


 2724      524F525F 
 2724      4C324341 
 2724      505F434F 
 2725              	.LASF30:
 2726 0ec2 4359424C 		.ascii	"CYBLE_EVT_GAP_PASSKEY_DISPLAY_REQUEST\000"
 2726      455F4556 
 2726      545F4741 
 2726      505F5041 
 2726      53534B45 
 2727              	.LASF23:
 2728 0ee8 4359424C 		.ascii	"CYBLE_EVT_HARDWARE_ERROR\000"
 2728      455F4556 
 2728      545F4841 
 2728      52445741 
 2728      52455F45 
 2729              	.LASF3:
 2730 0f01 73686F72 		.ascii	"short unsigned int\000"
 2730      7420756E 
 2730      7369676E 
 2730      65642069 
 2730      6E7400
 2731              	.LASF42:
 2732 0f14 4359424C 		.ascii	"CYBLE_EVT_GAP_OOB_GENERATED_NOTIFICATION\000"
 2732      455F4556 
 2732      545F4741 
 2732      505F4F4F 
 2732      425F4745 
 2733              	.LASF137:
 2734 0f3d 68616E64 		.ascii	"handleValPair\000"
 2734      6C655661 
 2734      6C506169 
 2734      7200
 2735              	.LASF94:
 2736 0f4b 4359424C 		.ascii	"CYBLE_ERROR_INVALID_OPERATION\000"
 2736      455F4552 
 2736      524F525F 
 2736      494E5641 
 2736      4C49445F 
 2737              	.LASF54:
 2738 0f69 4359424C 		.ascii	"CYBLE_EVT_GATTS_XCNHG_MTU_REQ\000"
 2738      455F4556 
 2738      545F4741 
 2738      5454535F 
 2738      58434E48 
 2739              	.LASF144:
 2740 0f87 6E657744 		.ascii	"newData\000"
 2740      61746100 
 2741              	.LASF96:
 2742 0f8f 4359424C 		.ascii	"CYBLE_ERROR_INSUFFICIENT_RESOURCES\000"
 2742      455F4552 
 2742      524F525F 
 2742      494E5355 
 2742      46464943 
 2743              	.LASF160:
 2744 0fb2 636F756E 		.ascii	"count2\000"
 2744      743200
 2745              	.LASF10:
ARM GAS  C:\Users\BENAKA~1\AppData\Local\Temp\cchf5c2F.s 			page 63


 2746 0fb9 75696E74 		.ascii	"uint8_t\000"
 2746      385F7400 
 2747              	.LASF118:
 2748 0fc1 4359424C 		.ascii	"CYBLE_ERROR_CONTROLLER_BUSY\000"
 2748      455F4552 
 2748      524F525F 
 2748      434F4E54 
 2748      524F4C4C 
 2749              	.LASF155:
 2750 0fdd 626C6541 		.ascii	"bleApiResult\000"
 2750      70695265 
 2750      73756C74 
 2750      00
 2751              	.LASF114:
 2752 0fea 4359424C 		.ascii	"CYBLE_ERROR_MIC_AUTH_FAILED\000"
 2752      455F4552 
 2752      524F525F 
 2752      4D49435F 
 2752      41555448 
 2753              	.LASF152:
 2754 1006 75617274 		.ascii	"uartTxData\000"
 2754      54784461 
 2754      746100
 2755              	.LASF59:
 2756 1011 4359424C 		.ascii	"CYBLE_EVT_GATTC_FIND_BY_TYPE_VALUE_RSP\000"
 2756      455F4556 
 2756      545F4741 
 2756      5454435F 
 2756      46494E44 
 2757              	.LASF101:
 2758 1038 4359424C 		.ascii	"CYBLE_ERROR_GAP_ROLE\000"
 2758      455F4552 
 2758      524F525F 
 2758      4741505F 
 2758      524F4C45 
 2759              	.LASF39:
 2760 104d 4359424C 		.ascii	"CYBLE_EVT_GAP_KEYINFO_EXCHNGE_CMPLT\000"
 2760      455F4556 
 2760      545F4741 
 2760      505F4B45 
 2760      59494E46 
 2761              	.LASF170:
 2762 1071 666C6173 		.ascii	"flash_storage\000"
 2762      685F7374 
 2762      6F726167 
 2762      6500
 2763              	.LASF81:
 2764 107f 4359424C 		.ascii	"CYBLE_EVT_L2CAP_CBFC_DISCONN_IND\000"
 2764      455F4556 
 2764      545F4C32 
 2764      4341505F 
 2764      43424643 
 2765              	.LASF77:
 2766 10a0 4359424C 		.ascii	"CYBLE_EVT_L2CAP_CONN_PARAM_UPDATE_RSP\000"
 2766      455F4556 
 2766      545F4C32 
 2766      4341505F 
ARM GAS  C:\Users\BENAKA~1\AppData\Local\Temp\cchf5c2F.s 			page 64


 2766      434F4E4E 
 2767              	.LASF105:
 2768 10c6 4359424C 		.ascii	"CYBLE_ERROR_L2CAP_PSM_WRONG_ENCODING\000"
 2768      455F4552 
 2768      524F525F 
 2768      4C324341 
 2768      505F5053 
 2769              	.LASF44:
 2770 10eb 4359424C 		.ascii	"CYBLE_EVT_GAP_ENHANCE_CONN_COMPLETE\000"
 2770      455F4556 
 2770      545F4741 
 2770      505F454E 
 2770      48414E43 
 2771              	.LASF126:
 2772 110f 4359424C 		.ascii	"CYBLE_GATT_DB_ATTR_HANDLE_T\000"
 2772      455F4741 
 2772      54545F44 
 2772      425F4154 
 2772      54525F48 
 2773              	.LASF168:
 2774 112b 74784368 		.ascii	"txCharHandle\000"
 2774      61724861 
 2774      6E646C65 
 2774      00
 2775              	.LASF53:
 2776 1138 4359424C 		.ascii	"CYBLE_EVT_GATT_DISCONNECT_IND\000"
 2776      455F4556 
 2776      545F4741 
 2776      54545F44 
 2776      4953434F 
 2777              	.LASF111:
 2778 1156 4359424C 		.ascii	"CYBLE_ERROR_GATT_DB_INVALID_ATTR_HANDLE\000"
 2778      455F4552 
 2778      524F525F 
 2778      47415454 
 2778      5F44425F 
 2779              	.LASF90:
 2780 117e 4359424C 		.ascii	"CYBLE_EVT_FLASH_CORRUPT\000"
 2780      455F4556 
 2780      545F464C 
 2780      4153485F 
 2780      434F5252 
 2781              	.LASF100:
 2782 1196 4359424C 		.ascii	"CYBLE_ERROR_REPEATED_ATTEMPTS\000"
 2782      455F4552 
 2782      524F525F 
 2782      52455045 
 2782      41544544 
 2783              		.ident	"GCC: (GNU Tools for ARM Embedded Processors) 5.4.1 20160609 (release) [ARM/embedded-5-bran
