ARM GAS  C:\Users\BENAKA~1\AppData\Local\Temp\cchf5c2F.s 			page 1


   1              		.syntax unified
   2              		.cpu cortex-m0
   3              		.fpu softvfp
   4              		.eabi_attribute 20, 1
   5              		.eabi_attribute 21, 1
   6              		.eabi_attribute 23, 3
   7              		.eabi_attribute 24, 1
   8              		.eabi_attribute 25, 1
   9              		.eabi_attribute 26, 1
  10              		.eabi_attribute 30, 6
  11              		.eabi_attribute 34, 0
  12              		.eabi_attribute 18, 4
  13              		.thumb
  14              		.syntax unified
  15              		.file	"app_UART.c"
  16              		.text
  17              	.Ltext0:
  18              		.cfi_sections	.debug_frame
  19              		.global	flash_storage
  20              		.section	.rodata
  21              		.align	2
  22              		.type	flash_storage, %object
  23              		.size	flash_storage, 16
  24              	flash_storage:
  25 0000 00000000 		.space	16
  25      00000000 
  25      00000000 
  25      00000000 
  26              		.section	.text.StoreInFlash,"ax",%progbits
  27              		.align	2
  28              		.global	StoreInFlash
  29              		.code	16
  30              		.thumb_func
  31              		.type	StoreInFlash, %function
  32              	StoreInFlash:
  33              	.LFB36:
  34              		.file 1 "app_UART.c"
   1:app_UART.c    **** /*******************************************************************************
   2:app_UART.c    **** * File Name: app_UART.c
   3:app_UART.c    **** *
   4:app_UART.c    **** * Description:
   5:app_UART.c    **** *  Common BLE application code for client devices.
   6:app_UART.c    **** *
   7:app_UART.c    **** *******************************************************************************
   8:app_UART.c    **** * Copyright 2015, Cypress Semiconductor Corporation.  All rights reserved.
   9:app_UART.c    **** * You may use this file only in accordance with the license, terms, conditions,
  10:app_UART.c    **** * disclaimers, and limitations in the end user license agreement accompanying
  11:app_UART.c    **** * the software package with which this file was provided.
  12:app_UART.c    **** *******************************************************************************/
  13:app_UART.c    **** 
  14:app_UART.c    **** #include "app_UART.h"
  15:app_UART.c    **** #include "project.h"
  16:app_UART.c    **** #include <stdlib.h>
  17:app_UART.c    **** #include <stdio.h>
  18:app_UART.c    **** #include <string.h>
  19:app_UART.c    **** const uint8 flash_storage[16] = {0};
  20:app_UART.c    **** 
ARM GAS  C:\Users\BENAKA~1\AppData\Local\Temp\cchf5c2F.s 			page 2


  21:app_UART.c    **** void StoreInFlash(uint8 *newData, uint8 length)
  22:app_UART.c    **** {
  35              		.loc 1 22 0
  36              		.cfi_startproc
  37              		@ args = 0, pretend = 0, frame = 16
  38              		@ frame_needed = 1, uses_anonymous_args = 0
  39 0000 90B5     		push	{r4, r7, lr}
  40              		.cfi_def_cfa_offset 12
  41              		.cfi_offset 4, -12
  42              		.cfi_offset 7, -8
  43              		.cfi_offset 14, -4
  44 0002 85B0     		sub	sp, sp, #20
  45              		.cfi_def_cfa_offset 32
  46 0004 00AF     		add	r7, sp, #0
  47              		.cfi_def_cfa_register 7
  48 0006 7860     		str	r0, [r7, #4]
  49 0008 0A00     		movs	r2, r1
  50 000a FB1C     		adds	r3, r7, #3
  51 000c 1A70     		strb	r2, [r3]
  23:app_UART.c    ****     /* make sure the BLE stack is not in low-power mode */
  24:app_UART.c    ****     CyBle_ExitLPM();
  52              		.loc 1 24 0
  53 000e FFF7FEFF 		bl	CyBle_ExitLPM
  25:app_UART.c    **** 
  26:app_UART.c    ****     /* repeat flash write attempt until success */
  27:app_UART.c    **** 
  28:app_UART.c    **** 
  29:app_UART.c    ****         /* write segment of configuration structure from RAM into flash */
  30:app_UART.c    ****         CYBLE_API_RESULT_T result = CyBle_StoreAppData(
  54              		.loc 1 30 0
  55 0012 FB1C     		adds	r3, r7, #3
  56 0014 1A78     		ldrb	r2, [r3]
  57 0016 0E23     		movs	r3, #14
  58 0018 FC18     		adds	r4, r7, r3
  59 001a 0549     		ldr	r1, .L2
  60 001c 7868     		ldr	r0, [r7, #4]
  61 001e 0023     		movs	r3, #0
  62 0020 FFF7FEFF 		bl	CyBle_StoreAppData
  63 0024 0300     		movs	r3, r0
  64 0026 2380     		strh	r3, [r4]
  31:app_UART.c    ****             newData,                    /* uint8 pointer to source data */
  32:app_UART.c    ****             (uint8_t *)&flash_storage,  /* uint8 pointer to const destination */
  33:app_UART.c    ****             length,                     /* number of bytes to write */
  34:app_UART.c    ****             0);                         /* don't force write, but loop will keep retrying */
  35:app_UART.c    **** 
  36:app_UART.c    **** }
  65              		.loc 1 36 0
  66 0028 C046     		nop
  67 002a BD46     		mov	sp, r7
  68 002c 05B0     		add	sp, sp, #20
  69              		@ sp needed
  70 002e 90BD     		pop	{r4, r7, pc}
  71              	.L3:
  72              		.align	2
  73              	.L2:
  74 0030 00000000 		.word	flash_storage
  75              		.cfi_endproc
ARM GAS  C:\Users\BENAKA~1\AppData\Local\Temp\cchf5c2F.s 			page 3


  76              	.LFE36:
  77              		.size	StoreInFlash, .-StoreInFlash
  78              		.section	.text.HandleUartRxTraffic,"ax",%progbits
  79              		.align	2
  80              		.global	HandleUartRxTraffic
  81              		.code	16
  82              		.thumb_func
  83              		.type	HandleUartRxTraffic, %function
  84              	HandleUartRxTraffic:
  85              	.LFB37:
  37:app_UART.c    **** /*******************************************************************************
  38:app_UART.c    **** * Function Name: HandleUartRxTraffic
  39:app_UART.c    **** ********************************************************************************
  40:app_UART.c    **** *
  41:app_UART.c    **** * Summary:
  42:app_UART.c    **** *  This function takes data from received notfications and pushes it to the 
  43:app_UART.c    **** *  UART TX buffer. 
  44:app_UART.c    **** *
  45:app_UART.c    **** * Parameters:
  46:app_UART.c    **** *  CYBLE_GATTC_HANDLE_VALUE_NTF_PARAM_T * - the notification parameter as  
  47:app_UART.c    **** *                                           recieved by the BLE stack
  48:app_UART.c    **** *
  49:app_UART.c    **** * Return:
  50:app_UART.c    **** *   None.
  51:app_UART.c    **** *
  52:app_UART.c    **** *******************************************************************************/
  53:app_UART.c    **** void HandleUartRxTraffic(CYBLE_GATTC_HANDLE_VALUE_NTF_PARAM_T *uartRxDataNotification)
  54:app_UART.c    **** {
  86              		.loc 1 54 0
  87              		.cfi_startproc
  88              		@ args = 0, pretend = 0, frame = 8
  89              		@ frame_needed = 1, uses_anonymous_args = 0
  90 0000 80B5     		push	{r7, lr}
  91              		.cfi_def_cfa_offset 8
  92              		.cfi_offset 7, -8
  93              		.cfi_offset 14, -4
  94 0002 82B0     		sub	sp, sp, #8
  95              		.cfi_def_cfa_offset 16
  96 0004 00AF     		add	r7, sp, #0
  97              		.cfi_def_cfa_register 7
  98 0006 7860     		str	r0, [r7, #4]
  55:app_UART.c    ****     if(uartRxDataNotification->handleValPair.attrHandle == txCharHandle)
  99              		.loc 1 55 0
 100 0008 7B68     		ldr	r3, [r7, #4]
 101 000a 9A89     		ldrh	r2, [r3, #12]
 102 000c 074B     		ldr	r3, .L7
 103 000e 1B88     		ldrh	r3, [r3]
 104 0010 9A42     		cmp	r2, r3
 105 0012 07D1     		bne	.L6
  56:app_UART.c    ****     {
  57:app_UART.c    ****         UART_SpiUartPutArray(uartRxDataNotification->handleValPair.value.val, \
 106              		.loc 1 57 0
 107 0014 7B68     		ldr	r3, [r7, #4]
 108 0016 5A68     		ldr	r2, [r3, #4]
  58:app_UART.c    ****             (uint32) uartRxDataNotification->handleValPair.value.len);
 109              		.loc 1 58 0
 110 0018 7B68     		ldr	r3, [r7, #4]
ARM GAS  C:\Users\BENAKA~1\AppData\Local\Temp\cchf5c2F.s 			page 4


 111 001a 1B89     		ldrh	r3, [r3, #8]
  57:app_UART.c    ****             (uint32) uartRxDataNotification->handleValPair.value.len);
 112              		.loc 1 57 0
 113 001c 1900     		movs	r1, r3
 114 001e 1000     		movs	r0, r2
 115 0020 FFF7FEFF 		bl	UART_SpiUartPutArray
 116              	.L6:
  59:app_UART.c    ****     }
  60:app_UART.c    ****    
  61:app_UART.c    **** }
 117              		.loc 1 61 0
 118 0024 C046     		nop
 119 0026 BD46     		mov	sp, r7
 120 0028 02B0     		add	sp, sp, #8
 121              		@ sp needed
 122 002a 80BD     		pop	{r7, pc}
 123              	.L8:
 124              		.align	2
 125              	.L7:
 126 002c 00000000 		.word	txCharHandle
 127              		.cfi_endproc
 128              	.LFE37:
 129              		.size	HandleUartRxTraffic, .-HandleUartRxTraffic
 130              		.global	WriteArray
 131              		.data
 132              		.align	2
 133              		.type	WriteArray, %object
 134              		.size	WriteArray, 16
 135              	WriteArray:
 136 0000 52       		.byte	82
 137 0001 65       		.byte	101
 138 0002 64       		.byte	100
 139 0003 42       		.byte	66
 140 0004 65       		.byte	101
 141 0005 61       		.byte	97
 142 0006 72       		.byte	114
 143 0007 2C       		.byte	44
 144 0008 30       		.byte	48
 145 0009 30       		.byte	48
 146 000a 30       		.byte	48
 147 000b 30       		.byte	48
 148 000c 30       		.byte	48
 149 000d 30       		.byte	48
 150 000e 30       		.byte	48
 151 000f 25       		.byte	37
 152              		.comm	WriteArray2,16,4
 153              		.comm	WriteArray3,16,4
 154              		.comm	ReadArray,7,4
 155              		.comm	Temp,15,4
 156              		.section	.rodata
 157              		.align	2
 158              	.LC3:
 159 0010 256400   		.ascii	"%d\000"
 160              		.section	.text.HandleUartTxTraffic,"ax",%progbits
 161              		.align	2
 162              		.global	HandleUartTxTraffic
 163              		.code	16
ARM GAS  C:\Users\BENAKA~1\AppData\Local\Temp\cchf5c2F.s 			page 5


 164              		.thumb_func
 165              		.type	HandleUartTxTraffic, %function
 166              	HandleUartTxTraffic:
 167              	.LFB38:
  62:app_UART.c    **** 
  63:app_UART.c    **** 
  64:app_UART.c    **** /*******************************************************************************
  65:app_UART.c    **** * Function Name: HandleUartTxTraffic
  66:app_UART.c    **** ********************************************************************************
  67:app_UART.c    **** *
  68:app_UART.c    **** * Summary:
  69:app_UART.c    **** *  This function takes data from UART RX buffer and pushes it to the server 
  70:app_UART.c    **** *  as Write Without Response command.
  71:app_UART.c    **** *
  72:app_UART.c    **** * Parameters:
  73:app_UART.c    **** *  None.
  74:app_UART.c    **** *
  75:app_UART.c    **** * Return:
  76:app_UART.c    **** *   None.
  77:app_UART.c    **** *
  78:app_UART.c    **** *******************************************************************************/
  79:app_UART.c    **** uint8 WriteArray[16] = { (uint8) 0x52, (uint8) 0x65, (uint8) 0x64, (uint8) 0x42, (uint8) 0x65, (uin
  80:app_UART.c    **** uint8	WriteArray2[16];	
  81:app_UART.c    **** char	WriteArray3[16];
  82:app_UART.c    **** uint8	ReadArray[7];	
  83:app_UART.c    **** uint8   Temp[15];
  84:app_UART.c    **** 
  85:app_UART.c    **** 
  86:app_UART.c    **** void HandleUartTxTraffic(void)
  87:app_UART.c    **** {
 168              		.loc 1 87 0
 169              		.cfi_startproc
 170              		@ args = 0, pretend = 0, frame = 144
 171              		@ frame_needed = 1, uses_anonymous_args = 0
 172 0000 F0B5     		push	{r4, r5, r6, r7, lr}
 173              		.cfi_def_cfa_offset 20
 174              		.cfi_offset 4, -20
 175              		.cfi_offset 5, -16
 176              		.cfi_offset 6, -12
 177              		.cfi_offset 7, -8
 178              		.cfi_offset 14, -4
 179 0002 A5B0     		sub	sp, sp, #148
 180              		.cfi_def_cfa_offset 168
 181 0004 00AF     		add	r7, sp, #0
 182              		.cfi_def_cfa_register 7
 183              		.loc 1 87 0
 184 0006 6B46     		mov	r3, sp
 185 0008 7B60     		str	r3, [r7, #4]
  88:app_UART.c    ****     uint8 WriteArray[16] = { (uint8) 0x52, (uint8) 0x65, (uint8) 0x64, (uint8) 0x42, (uint8) 0x65, 
 186              		.loc 1 88 0
 187 000a 3823     		movs	r3, #56
 188 000c 2022     		movs	r2, #32
 189 000e 9446     		mov	ip, r2
 190 0010 BC44     		add	ip, ip, r7
 191 0012 6344     		add	r3, r3, ip
 192 0014 1800     		movs	r0, r3
 193 0016 1023     		movs	r3, #16
ARM GAS  C:\Users\BENAKA~1\AppData\Local\Temp\cchf5c2F.s 			page 6


 194 0018 1A00     		movs	r2, r3
 195 001a 0021     		movs	r1, #0
 196 001c FFF7FEFF 		bl	memset
 197 0020 3823     		movs	r3, #56
 198 0022 2022     		movs	r2, #32
 199 0024 9446     		mov	ip, r2
 200 0026 BC44     		add	ip, ip, r7
 201 0028 6344     		add	r3, r3, ip
 202 002a 5222     		movs	r2, #82
 203 002c 1A70     		strb	r2, [r3]
 204 002e 3823     		movs	r3, #56
 205 0030 2022     		movs	r2, #32
 206 0032 9446     		mov	ip, r2
 207 0034 BC44     		add	ip, ip, r7
 208 0036 6344     		add	r3, r3, ip
 209 0038 6522     		movs	r2, #101
 210 003a 5A70     		strb	r2, [r3, #1]
 211 003c 3823     		movs	r3, #56
 212 003e 2022     		movs	r2, #32
 213 0040 9446     		mov	ip, r2
 214 0042 BC44     		add	ip, ip, r7
 215 0044 6344     		add	r3, r3, ip
 216 0046 6422     		movs	r2, #100
 217 0048 9A70     		strb	r2, [r3, #2]
 218 004a 3823     		movs	r3, #56
 219 004c 2022     		movs	r2, #32
 220 004e 9446     		mov	ip, r2
 221 0050 BC44     		add	ip, ip, r7
 222 0052 6344     		add	r3, r3, ip
 223 0054 4222     		movs	r2, #66
 224 0056 DA70     		strb	r2, [r3, #3]
 225 0058 3823     		movs	r3, #56
 226 005a 2022     		movs	r2, #32
 227 005c 9446     		mov	ip, r2
 228 005e BC44     		add	ip, ip, r7
 229 0060 6344     		add	r3, r3, ip
 230 0062 6522     		movs	r2, #101
 231 0064 1A71     		strb	r2, [r3, #4]
 232 0066 3823     		movs	r3, #56
 233 0068 2022     		movs	r2, #32
 234 006a 9446     		mov	ip, r2
 235 006c BC44     		add	ip, ip, r7
 236 006e 6344     		add	r3, r3, ip
 237 0070 6122     		movs	r2, #97
 238 0072 5A71     		strb	r2, [r3, #5]
 239 0074 3823     		movs	r3, #56
 240 0076 2022     		movs	r2, #32
 241 0078 9446     		mov	ip, r2
 242 007a BC44     		add	ip, ip, r7
 243 007c 6344     		add	r3, r3, ip
 244 007e 7222     		movs	r2, #114
 245 0080 9A71     		strb	r2, [r3, #6]
 246 0082 3823     		movs	r3, #56
 247 0084 2022     		movs	r2, #32
 248 0086 9446     		mov	ip, r2
 249 0088 BC44     		add	ip, ip, r7
 250 008a 6344     		add	r3, r3, ip
ARM GAS  C:\Users\BENAKA~1\AppData\Local\Temp\cchf5c2F.s 			page 7


 251 008c 2C22     		movs	r2, #44
 252 008e DA71     		strb	r2, [r3, #7]
  89:app_UART.c    ****     uint8   index;
  90:app_UART.c    ****     uint8   uartTxData[mtuSize];
 253              		.loc 1 90 0
 254 0090 E14B     		ldr	r3, .L36
 255 0092 1B88     		ldrh	r3, [r3]
 256 0094 1A00     		movs	r2, r3
 257 0096 013A     		subs	r2, r2, #1
 258 0098 8821     		movs	r1, #136
 259 009a 7918     		adds	r1, r7, r1
 260 009c 0A60     		str	r2, [r1]
 261 009e 3B61     		str	r3, [r7, #16]
 262 00a0 0022     		movs	r2, #0
 263 00a2 7A61     		str	r2, [r7, #20]
 264 00a4 3869     		ldr	r0, [r7, #16]
 265 00a6 7969     		ldr	r1, [r7, #20]
 266 00a8 0200     		movs	r2, r0
 267 00aa 520F     		lsrs	r2, r2, #29
 268 00ac 0E00     		movs	r6, r1
 269 00ae F600     		lsls	r6, r6, #3
 270 00b0 FE61     		str	r6, [r7, #28]
 271 00b2 FE69     		ldr	r6, [r7, #28]
 272 00b4 1643     		orrs	r6, r2
 273 00b6 FE61     		str	r6, [r7, #28]
 274 00b8 0200     		movs	r2, r0
 275 00ba D200     		lsls	r2, r2, #3
 276 00bc BA61     		str	r2, [r7, #24]
 277 00be BB60     		str	r3, [r7, #8]
 278 00c0 0022     		movs	r2, #0
 279 00c2 FA60     		str	r2, [r7, #12]
 280 00c4 B868     		ldr	r0, [r7, #8]
 281 00c6 F968     		ldr	r1, [r7, #12]
 282 00c8 0200     		movs	r2, r0
 283 00ca 520F     		lsrs	r2, r2, #29
 284 00cc 0E00     		movs	r6, r1
 285 00ce F500     		lsls	r5, r6, #3
 286 00d0 1543     		orrs	r5, r2
 287 00d2 0200     		movs	r2, r0
 288 00d4 D400     		lsls	r4, r2, #3
 289 00d6 0733     		adds	r3, r3, #7
 290 00d8 DB08     		lsrs	r3, r3, #3
 291 00da DB00     		lsls	r3, r3, #3
 292 00dc 6A46     		mov	r2, sp
 293 00de D31A     		subs	r3, r2, r3
 294 00e0 9D46     		mov	sp, r3
 295 00e2 6B46     		mov	r3, sp
 296 00e4 0033     		adds	r3, r3, #0
 297 00e6 8422     		movs	r2, #132
 298 00e8 BA18     		adds	r2, r7, r2
 299 00ea 1360     		str	r3, [r2]
  91:app_UART.c    ****     uint16  uartTxDataLength;	
  92:app_UART.c    ****     CYBLE_API_RESULT_T              bleApiResult;
  93:app_UART.c    ****     CYBLE_GATTC_WRITE_CMD_REQ_T     uartTxDataWriteCmd;
  94:app_UART.c    ****     //	Fill Array with values
  95:app_UART.c    ****     extern int count;
  96:app_UART.c    ****     int result = CyBle_GetRssi();
ARM GAS  C:\Users\BENAKA~1\AppData\Local\Temp\cchf5c2F.s 			page 8


 300              		.loc 1 96 0
 301 00ec FFF7FEFF 		bl	CyBle_GetRssi
 302 00f0 0300     		movs	r3, r0
 303 00f2 8022     		movs	r2, #128
 304 00f4 BA18     		adds	r2, r7, r2
 305 00f6 1360     		str	r3, [r2]
  97:app_UART.c    ****     
  98:app_UART.c    ****     long long int   m_z = 0;
 306              		.loc 1 98 0
 307 00f8 0023     		movs	r3, #0
 308 00fa 0024     		movs	r4, #0
 309 00fc BB67     		str	r3, [r7, #120]
 310 00fe FC67     		str	r4, [r7, #124]
  99:app_UART.c    ****     long long int   m_w = 0;
 311              		.loc 1 99 0
 312 0100 0023     		movs	r3, #0
 313 0102 0024     		movs	r4, #0
 314 0104 3B67     		str	r3, [r7, #112]
 315 0106 7C67     		str	r4, [r7, #116]
 100:app_UART.c    ****  //   long long int result = 0;
 101:app_UART.c    ****     char test[16];
 102:app_UART.c    ****     uint8 CountString[8];
 103:app_UART.c    ****     char temp[8];
 104:app_UART.c    ****     int count2 = 5;
 316              		.loc 1 104 0
 317 0108 0523     		movs	r3, #5
 318 010a FB66     		str	r3, [r7, #108]
 105:app_UART.c    ****      //   sprintf(temp,"%d", count2);
 106:app_UART.c    ****     int k;
 107:app_UART.c    ****         for(k=0; k<=8; k++){
 319              		.loc 1 107 0
 320 010c 0023     		movs	r3, #0
 321 010e 8C22     		movs	r2, #140
 322 0110 BA18     		adds	r2, r7, r2
 323 0112 1360     		str	r3, [r2]
 324 0114 DDE0     		b	.L10
 325              	.L22:
 326              	.LBB2:
 108:app_UART.c    ****         char test2 = temp[k];
 327              		.loc 1 108 0
 328 0116 4B23     		movs	r3, #75
 329 0118 2022     		movs	r2, #32
 330 011a 9446     		mov	ip, r2
 331 011c BC44     		add	ip, ip, r7
 332 011e 6344     		add	r3, r3, ip
 333 0120 0C22     		movs	r2, #12
 334 0122 2021     		movs	r1, #32
 335 0124 7918     		adds	r1, r7, r1
 336 0126 8918     		adds	r1, r1, r2
 337 0128 8C22     		movs	r2, #140
 338 012a BA18     		adds	r2, r7, r2
 339 012c 1268     		ldr	r2, [r2]
 340 012e 8A18     		adds	r2, r1, r2
 341 0130 1278     		ldrb	r2, [r2]
 342 0132 1A70     		strb	r2, [r3]
 109:app_UART.c    ****         if (test2 == '0'){
 343              		.loc 1 109 0
ARM GAS  C:\Users\BENAKA~1\AppData\Local\Temp\cchf5c2F.s 			page 9


 344 0134 4B23     		movs	r3, #75
 345 0136 2022     		movs	r2, #32
 346 0138 9446     		mov	ip, r2
 347 013a BC44     		add	ip, ip, r7
 348 013c 6344     		add	r3, r3, ip
 349 013e 1B78     		ldrb	r3, [r3]
 350 0140 302B     		cmp	r3, #48
 351 0142 0AD1     		bne	.L11
 110:app_UART.c    ****         CountString[k] = (uint8) 0x30;
 352              		.loc 1 110 0
 353 0144 1423     		movs	r3, #20
 354 0146 2022     		movs	r2, #32
 355 0148 BA18     		adds	r2, r7, r2
 356 014a D218     		adds	r2, r2, r3
 357 014c 8C23     		movs	r3, #140
 358 014e FB18     		adds	r3, r7, r3
 359 0150 1B68     		ldr	r3, [r3]
 360 0152 D318     		adds	r3, r2, r3
 361 0154 3022     		movs	r2, #48
 362 0156 1A70     		strb	r2, [r3]
 363 0158 B4E0     		b	.L12
 364              	.L11:
 111:app_UART.c    ****         } else if (test2 == '1'){
 365              		.loc 1 111 0
 366 015a 4B23     		movs	r3, #75
 367 015c 2022     		movs	r2, #32
 368 015e 9446     		mov	ip, r2
 369 0160 BC44     		add	ip, ip, r7
 370 0162 6344     		add	r3, r3, ip
 371 0164 1B78     		ldrb	r3, [r3]
 372 0166 312B     		cmp	r3, #49
 373 0168 0AD1     		bne	.L13
 112:app_UART.c    ****         CountString[k] = (uint8) 0x31;   
 374              		.loc 1 112 0
 375 016a 1423     		movs	r3, #20
 376 016c 2022     		movs	r2, #32
 377 016e BA18     		adds	r2, r7, r2
 378 0170 D218     		adds	r2, r2, r3
 379 0172 8C23     		movs	r3, #140
 380 0174 FB18     		adds	r3, r7, r3
 381 0176 1B68     		ldr	r3, [r3]
 382 0178 D318     		adds	r3, r2, r3
 383 017a 3122     		movs	r2, #49
 384 017c 1A70     		strb	r2, [r3]
 385 017e A1E0     		b	.L12
 386              	.L13:
 113:app_UART.c    ****         } else if (test2 == '2'){
 387              		.loc 1 113 0
 388 0180 4B23     		movs	r3, #75
 389 0182 2022     		movs	r2, #32
 390 0184 9446     		mov	ip, r2
 391 0186 BC44     		add	ip, ip, r7
 392 0188 6344     		add	r3, r3, ip
 393 018a 1B78     		ldrb	r3, [r3]
 394 018c 322B     		cmp	r3, #50
 395 018e 0AD1     		bne	.L14
 114:app_UART.c    ****         CountString[k] = (uint8) 0x32;   
ARM GAS  C:\Users\BENAKA~1\AppData\Local\Temp\cchf5c2F.s 			page 10


 396              		.loc 1 114 0
 397 0190 1423     		movs	r3, #20
 398 0192 2022     		movs	r2, #32
 399 0194 BA18     		adds	r2, r7, r2
 400 0196 D218     		adds	r2, r2, r3
 401 0198 8C23     		movs	r3, #140
 402 019a FB18     		adds	r3, r7, r3
 403 019c 1B68     		ldr	r3, [r3]
 404 019e D318     		adds	r3, r2, r3
 405 01a0 3222     		movs	r2, #50
 406 01a2 1A70     		strb	r2, [r3]
 407 01a4 8EE0     		b	.L12
 408              	.L14:
 115:app_UART.c    ****         }else if (test2 == '3'){
 409              		.loc 1 115 0
 410 01a6 4B23     		movs	r3, #75
 411 01a8 2022     		movs	r2, #32
 412 01aa 9446     		mov	ip, r2
 413 01ac BC44     		add	ip, ip, r7
 414 01ae 6344     		add	r3, r3, ip
 415 01b0 1B78     		ldrb	r3, [r3]
 416 01b2 332B     		cmp	r3, #51
 417 01b4 0AD1     		bne	.L15
 116:app_UART.c    ****         CountString[k] = (uint8) 0x33;   
 418              		.loc 1 116 0
 419 01b6 1423     		movs	r3, #20
 420 01b8 2022     		movs	r2, #32
 421 01ba BA18     		adds	r2, r7, r2
 422 01bc D218     		adds	r2, r2, r3
 423 01be 8C23     		movs	r3, #140
 424 01c0 FB18     		adds	r3, r7, r3
 425 01c2 1B68     		ldr	r3, [r3]
 426 01c4 D318     		adds	r3, r2, r3
 427 01c6 3322     		movs	r2, #51
 428 01c8 1A70     		strb	r2, [r3]
 429 01ca 7BE0     		b	.L12
 430              	.L15:
 117:app_UART.c    ****         }else if (test2 == '4'){
 431              		.loc 1 117 0
 432 01cc 4B23     		movs	r3, #75
 433 01ce 2022     		movs	r2, #32
 434 01d0 9446     		mov	ip, r2
 435 01d2 BC44     		add	ip, ip, r7
 436 01d4 6344     		add	r3, r3, ip
 437 01d6 1B78     		ldrb	r3, [r3]
 438 01d8 342B     		cmp	r3, #52
 439 01da 0AD1     		bne	.L16
 118:app_UART.c    ****         CountString[k] = (uint8) 0x34;   
 440              		.loc 1 118 0
 441 01dc 1423     		movs	r3, #20
 442 01de 2022     		movs	r2, #32
 443 01e0 BA18     		adds	r2, r7, r2
 444 01e2 D218     		adds	r2, r2, r3
 445 01e4 8C23     		movs	r3, #140
 446 01e6 FB18     		adds	r3, r7, r3
 447 01e8 1B68     		ldr	r3, [r3]
 448 01ea D318     		adds	r3, r2, r3
ARM GAS  C:\Users\BENAKA~1\AppData\Local\Temp\cchf5c2F.s 			page 11


 449 01ec 3422     		movs	r2, #52
 450 01ee 1A70     		strb	r2, [r3]
 451 01f0 68E0     		b	.L12
 452              	.L16:
 119:app_UART.c    ****         }else if (test2 == '5'){
 453              		.loc 1 119 0
 454 01f2 4B23     		movs	r3, #75
 455 01f4 2022     		movs	r2, #32
 456 01f6 9446     		mov	ip, r2
 457 01f8 BC44     		add	ip, ip, r7
 458 01fa 6344     		add	r3, r3, ip
 459 01fc 1B78     		ldrb	r3, [r3]
 460 01fe 352B     		cmp	r3, #53
 461 0200 0AD1     		bne	.L17
 120:app_UART.c    ****         CountString[k] = (uint8) 0x35;   
 462              		.loc 1 120 0
 463 0202 1423     		movs	r3, #20
 464 0204 2022     		movs	r2, #32
 465 0206 BA18     		adds	r2, r7, r2
 466 0208 D218     		adds	r2, r2, r3
 467 020a 8C23     		movs	r3, #140
 468 020c FB18     		adds	r3, r7, r3
 469 020e 1B68     		ldr	r3, [r3]
 470 0210 D318     		adds	r3, r2, r3
 471 0212 3522     		movs	r2, #53
 472 0214 1A70     		strb	r2, [r3]
 473 0216 55E0     		b	.L12
 474              	.L17:
 121:app_UART.c    ****         }else if (test2 == '6'){
 475              		.loc 1 121 0
 476 0218 4B23     		movs	r3, #75
 477 021a 2022     		movs	r2, #32
 478 021c 9446     		mov	ip, r2
 479 021e BC44     		add	ip, ip, r7
 480 0220 6344     		add	r3, r3, ip
 481 0222 1B78     		ldrb	r3, [r3]
 482 0224 362B     		cmp	r3, #54
 483 0226 0AD1     		bne	.L18
 122:app_UART.c    ****         CountString[k] = (uint8) 0x36;   
 484              		.loc 1 122 0
 485 0228 1423     		movs	r3, #20
 486 022a 2022     		movs	r2, #32
 487 022c BA18     		adds	r2, r7, r2
 488 022e D218     		adds	r2, r2, r3
 489 0230 8C23     		movs	r3, #140
 490 0232 FB18     		adds	r3, r7, r3
 491 0234 1B68     		ldr	r3, [r3]
 492 0236 D318     		adds	r3, r2, r3
 493 0238 3622     		movs	r2, #54
 494 023a 1A70     		strb	r2, [r3]
 495 023c 42E0     		b	.L12
 496              	.L18:
 123:app_UART.c    ****         }else if (test2 == '7'){
 497              		.loc 1 123 0
 498 023e 4B23     		movs	r3, #75
 499 0240 2022     		movs	r2, #32
 500 0242 9446     		mov	ip, r2
ARM GAS  C:\Users\BENAKA~1\AppData\Local\Temp\cchf5c2F.s 			page 12


 501 0244 BC44     		add	ip, ip, r7
 502 0246 6344     		add	r3, r3, ip
 503 0248 1B78     		ldrb	r3, [r3]
 504 024a 372B     		cmp	r3, #55
 505 024c 0AD1     		bne	.L19
 124:app_UART.c    ****         CountString[k] = (uint8) 0x37;   
 506              		.loc 1 124 0
 507 024e 1423     		movs	r3, #20
 508 0250 2022     		movs	r2, #32
 509 0252 BA18     		adds	r2, r7, r2
 510 0254 D218     		adds	r2, r2, r3
 511 0256 8C23     		movs	r3, #140
 512 0258 FB18     		adds	r3, r7, r3
 513 025a 1B68     		ldr	r3, [r3]
 514 025c D318     		adds	r3, r2, r3
 515 025e 3722     		movs	r2, #55
 516 0260 1A70     		strb	r2, [r3]
 517 0262 2FE0     		b	.L12
 518              	.L19:
 125:app_UART.c    ****         }else if (test2 == '8'){
 519              		.loc 1 125 0
 520 0264 4B23     		movs	r3, #75
 521 0266 2022     		movs	r2, #32
 522 0268 9446     		mov	ip, r2
 523 026a BC44     		add	ip, ip, r7
 524 026c 6344     		add	r3, r3, ip
 525 026e 1B78     		ldrb	r3, [r3]
 526 0270 382B     		cmp	r3, #56
 527 0272 0AD1     		bne	.L20
 126:app_UART.c    ****         CountString[k] = (uint8) 0x38;   
 528              		.loc 1 126 0
 529 0274 1423     		movs	r3, #20
 530 0276 2022     		movs	r2, #32
 531 0278 BA18     		adds	r2, r7, r2
 532 027a D218     		adds	r2, r2, r3
 533 027c 8C23     		movs	r3, #140
 534 027e FB18     		adds	r3, r7, r3
 535 0280 1B68     		ldr	r3, [r3]
 536 0282 D318     		adds	r3, r2, r3
 537 0284 3822     		movs	r2, #56
 538 0286 1A70     		strb	r2, [r3]
 539 0288 1CE0     		b	.L12
 540              	.L20:
 127:app_UART.c    ****         }else if (test2 == '9'){
 541              		.loc 1 127 0
 542 028a 4B23     		movs	r3, #75
 543 028c 2022     		movs	r2, #32
 544 028e 9446     		mov	ip, r2
 545 0290 BC44     		add	ip, ip, r7
 546 0292 6344     		add	r3, r3, ip
 547 0294 1B78     		ldrb	r3, [r3]
 548 0296 392B     		cmp	r3, #57
 549 0298 0AD1     		bne	.L21
 128:app_UART.c    ****         CountString[k] = (uint8) 0x39;   
 550              		.loc 1 128 0
 551 029a 1423     		movs	r3, #20
 552 029c 2022     		movs	r2, #32
ARM GAS  C:\Users\BENAKA~1\AppData\Local\Temp\cchf5c2F.s 			page 13


 553 029e BA18     		adds	r2, r7, r2
 554 02a0 D218     		adds	r2, r2, r3
 555 02a2 8C23     		movs	r3, #140
 556 02a4 FB18     		adds	r3, r7, r3
 557 02a6 1B68     		ldr	r3, [r3]
 558 02a8 D318     		adds	r3, r2, r3
 559 02aa 3922     		movs	r2, #57
 560 02ac 1A70     		strb	r2, [r3]
 561 02ae 09E0     		b	.L12
 562              	.L21:
 129:app_UART.c    ****         } else
 130:app_UART.c    ****         CountString[k] = (uint8) 0x40;
 563              		.loc 1 130 0
 564 02b0 1423     		movs	r3, #20
 565 02b2 2022     		movs	r2, #32
 566 02b4 BA18     		adds	r2, r7, r2
 567 02b6 D218     		adds	r2, r2, r3
 568 02b8 8C23     		movs	r3, #140
 569 02ba FB18     		adds	r3, r7, r3
 570 02bc 1B68     		ldr	r3, [r3]
 571 02be D318     		adds	r3, r2, r3
 572 02c0 4022     		movs	r2, #64
 573 02c2 1A70     		strb	r2, [r3]
 574              	.L12:
 575              	.LBE2:
 107:app_UART.c    ****         char test2 = temp[k];
 576              		.loc 1 107 0 discriminator 2
 577 02c4 8C23     		movs	r3, #140
 578 02c6 FB18     		adds	r3, r7, r3
 579 02c8 1B68     		ldr	r3, [r3]
 580 02ca 0133     		adds	r3, r3, #1
 581 02cc 8C22     		movs	r2, #140
 582 02ce BA18     		adds	r2, r7, r2
 583 02d0 1360     		str	r3, [r2]
 584              	.L10:
 107:app_UART.c    ****         char test2 = temp[k];
 585              		.loc 1 107 0 is_stmt 0 discriminator 1
 586 02d2 8C23     		movs	r3, #140
 587 02d4 FB18     		adds	r3, r7, r3
 588 02d6 1B68     		ldr	r3, [r3]
 589 02d8 082B     		cmp	r3, #8
 590 02da 00DC     		bgt	.LCB499
 591 02dc 1BE7     		b	.L22	@long jump
 592              	.LCB499:
 131:app_UART.c    ****         }
 132:app_UART.c    ****     char resultString[7]; //= {1,2,3,4,5,6,7};
 133:app_UART.c    **** 
 134:app_UART.c    ****     StoreInFlash(CountString,16);
 593              		.loc 1 134 0 is_stmt 1
 594 02de 1423     		movs	r3, #20
 595 02e0 2022     		movs	r2, #32
 596 02e2 9446     		mov	ip, r2
 597 02e4 BC44     		add	ip, ip, r7
 598 02e6 6344     		add	r3, r3, ip
 599 02e8 1021     		movs	r1, #16
 600 02ea 1800     		movs	r0, r3
 601 02ec FFF7FEFF 		bl	StoreInFlash
ARM GAS  C:\Users\BENAKA~1\AppData\Local\Temp\cchf5c2F.s 			page 14


 135:app_UART.c    ****     //memcpy(WriteArray2, flash_storage,16);
 136:app_UART.c    ****     //if (WriteArray2[0] == (uint8) 0x35){
 137:app_UART.c    ****       //     WriteArray3[0] = 11;
 138:app_UART.c    ****    // }
 139:app_UART.c    ****   //  m_z = (36969 * (int)WriteArray3[0-(strlen(WriteArray3)-1)]) * ((m_z) + 65535) + (m_z >> 16);
 140:app_UART.c    ****    // m_w = (18000 * (int)WriteArray3[0-(strlen(WriteArray3)-1)]) * ((m_w) + 65535) + (m_w >> 16);
 141:app_UART.c    ****    // result = ((m_z << 16) + m_w) % 7123489;
 142:app_UART.c    ****  //   WriteArray[8] = (uint8) 0x33;
 143:app_UART.c    ****     sprintf(resultString,"%d", result);
 602              		.loc 1 143 0
 603 02f0 8023     		movs	r3, #128
 604 02f2 FB18     		adds	r3, r7, r3
 605 02f4 1A68     		ldr	r2, [r3]
 606 02f6 4949     		ldr	r1, .L36+4
 607 02f8 2423     		movs	r3, #36
 608 02fa FB18     		adds	r3, r7, r3
 609 02fc 1800     		movs	r0, r3
 610 02fe FFF7FEFF 		bl	sprintf
 144:app_UART.c    **** 
 145:app_UART.c    ****       for(k=0; k<=8; k++){
 611              		.loc 1 145 0
 612 0302 0023     		movs	r3, #0
 613 0304 8C22     		movs	r2, #140
 614 0306 BA18     		adds	r2, r7, r2
 615 0308 1360     		str	r3, [r2]
 616 030a EBE0     		b	.L23
 617              	.L35:
 618              	.LBB3:
 146:app_UART.c    ****         char test = resultString[k];
 619              		.loc 1 146 0
 620 030c 4A23     		movs	r3, #74
 621 030e 2022     		movs	r2, #32
 622 0310 9446     		mov	ip, r2
 623 0312 BC44     		add	ip, ip, r7
 624 0314 6344     		add	r3, r3, ip
 625 0316 2422     		movs	r2, #36
 626 0318 B918     		adds	r1, r7, r2
 627 031a 8C22     		movs	r2, #140
 628 031c BA18     		adds	r2, r7, r2
 629 031e 1268     		ldr	r2, [r2]
 630 0320 8A18     		adds	r2, r1, r2
 631 0322 1278     		ldrb	r2, [r2]
 632 0324 1A70     		strb	r2, [r3]
 147:app_UART.c    ****         if (test == '0'){
 633              		.loc 1 147 0
 634 0326 4A23     		movs	r3, #74
 635 0328 2022     		movs	r2, #32
 636 032a 9446     		mov	ip, r2
 637 032c BC44     		add	ip, ip, r7
 638 032e 6344     		add	r3, r3, ip
 639 0330 1B78     		ldrb	r3, [r3]
 640 0332 302B     		cmp	r3, #48
 641 0334 0BD1     		bne	.L24
 148:app_UART.c    ****         WriteArray[(8+k)] = (uint8) 0x30;
 642              		.loc 1 148 0
 643 0336 8C23     		movs	r3, #140
 644 0338 FB18     		adds	r3, r7, r3
ARM GAS  C:\Users\BENAKA~1\AppData\Local\Temp\cchf5c2F.s 			page 15


 645 033a 1B68     		ldr	r3, [r3]
 646 033c 0833     		adds	r3, r3, #8
 647 033e 3822     		movs	r2, #56
 648 0340 2021     		movs	r1, #32
 649 0342 8C46     		mov	ip, r1
 650 0344 BC44     		add	ip, ip, r7
 651 0346 6244     		add	r2, r2, ip
 652 0348 3021     		movs	r1, #48
 653 034a D154     		strb	r1, [r2, r3]
 654 034c C3E0     		b	.L25
 655              	.L24:
 149:app_UART.c    ****         } else if (test == '1'){
 656              		.loc 1 149 0
 657 034e 4A23     		movs	r3, #74
 658 0350 2022     		movs	r2, #32
 659 0352 9446     		mov	ip, r2
 660 0354 BC44     		add	ip, ip, r7
 661 0356 6344     		add	r3, r3, ip
 662 0358 1B78     		ldrb	r3, [r3]
 663 035a 312B     		cmp	r3, #49
 664 035c 0BD1     		bne	.L26
 150:app_UART.c    ****         WriteArray[(8+k)] = (uint8) 0x31;   
 665              		.loc 1 150 0
 666 035e 8C23     		movs	r3, #140
 667 0360 FB18     		adds	r3, r7, r3
 668 0362 1B68     		ldr	r3, [r3]
 669 0364 0833     		adds	r3, r3, #8
 670 0366 3822     		movs	r2, #56
 671 0368 2021     		movs	r1, #32
 672 036a 8C46     		mov	ip, r1
 673 036c BC44     		add	ip, ip, r7
 674 036e 6244     		add	r2, r2, ip
 675 0370 3121     		movs	r1, #49
 676 0372 D154     		strb	r1, [r2, r3]
 677 0374 AFE0     		b	.L25
 678              	.L26:
 151:app_UART.c    ****         } else if (test == '2'){
 679              		.loc 1 151 0
 680 0376 4A23     		movs	r3, #74
 681 0378 2022     		movs	r2, #32
 682 037a 9446     		mov	ip, r2
 683 037c BC44     		add	ip, ip, r7
 684 037e 6344     		add	r3, r3, ip
 685 0380 1B78     		ldrb	r3, [r3]
 686 0382 322B     		cmp	r3, #50
 687 0384 0BD1     		bne	.L27
 152:app_UART.c    ****         WriteArray[(8+k)] = (uint8) 0x32;   
 688              		.loc 1 152 0
 689 0386 8C23     		movs	r3, #140
 690 0388 FB18     		adds	r3, r7, r3
 691 038a 1B68     		ldr	r3, [r3]
 692 038c 0833     		adds	r3, r3, #8
 693 038e 3822     		movs	r2, #56
 694 0390 2021     		movs	r1, #32
 695 0392 8C46     		mov	ip, r1
 696 0394 BC44     		add	ip, ip, r7
 697 0396 6244     		add	r2, r2, ip
ARM GAS  C:\Users\BENAKA~1\AppData\Local\Temp\cchf5c2F.s 			page 16


 698 0398 3221     		movs	r1, #50
 699 039a D154     		strb	r1, [r2, r3]
 700 039c 9BE0     		b	.L25
 701              	.L27:
 153:app_UART.c    ****         }else if (test == '3'){
 702              		.loc 1 153 0
 703 039e 4A23     		movs	r3, #74
 704 03a0 2022     		movs	r2, #32
 705 03a2 9446     		mov	ip, r2
 706 03a4 BC44     		add	ip, ip, r7
 707 03a6 6344     		add	r3, r3, ip
 708 03a8 1B78     		ldrb	r3, [r3]
 709 03aa 332B     		cmp	r3, #51
 710 03ac 0BD1     		bne	.L28
 154:app_UART.c    ****         WriteArray[(8+k)] = (uint8) 0x33;   
 711              		.loc 1 154 0
 712 03ae 8C23     		movs	r3, #140
 713 03b0 FB18     		adds	r3, r7, r3
 714 03b2 1B68     		ldr	r3, [r3]
 715 03b4 0833     		adds	r3, r3, #8
 716 03b6 3822     		movs	r2, #56
 717 03b8 2021     		movs	r1, #32
 718 03ba 8C46     		mov	ip, r1
 719 03bc BC44     		add	ip, ip, r7
 720 03be 6244     		add	r2, r2, ip
 721 03c0 3321     		movs	r1, #51
 722 03c2 D154     		strb	r1, [r2, r3]
 723 03c4 87E0     		b	.L25
 724              	.L28:
 155:app_UART.c    ****         }else if (test == '4'){
 725              		.loc 1 155 0
 726 03c6 4A23     		movs	r3, #74
 727 03c8 2022     		movs	r2, #32
 728 03ca 9446     		mov	ip, r2
 729 03cc BC44     		add	ip, ip, r7
 730 03ce 6344     		add	r3, r3, ip
 731 03d0 1B78     		ldrb	r3, [r3]
 732 03d2 342B     		cmp	r3, #52
 733 03d4 0BD1     		bne	.L29
 156:app_UART.c    ****         WriteArray[(8+k)] = (uint8) 0x34;   
 734              		.loc 1 156 0
 735 03d6 8C23     		movs	r3, #140
 736 03d8 FB18     		adds	r3, r7, r3
 737 03da 1B68     		ldr	r3, [r3]
 738 03dc 0833     		adds	r3, r3, #8
 739 03de 3822     		movs	r2, #56
 740 03e0 2021     		movs	r1, #32
 741 03e2 8C46     		mov	ip, r1
 742 03e4 BC44     		add	ip, ip, r7
 743 03e6 6244     		add	r2, r2, ip
 744 03e8 3421     		movs	r1, #52
 745 03ea D154     		strb	r1, [r2, r3]
 746 03ec 73E0     		b	.L25
 747              	.L29:
 157:app_UART.c    ****         }else if (test == '5'){
 748              		.loc 1 157 0
 749 03ee 4A23     		movs	r3, #74
ARM GAS  C:\Users\BENAKA~1\AppData\Local\Temp\cchf5c2F.s 			page 17


 750 03f0 2022     		movs	r2, #32
 751 03f2 9446     		mov	ip, r2
 752 03f4 BC44     		add	ip, ip, r7
 753 03f6 6344     		add	r3, r3, ip
 754 03f8 1B78     		ldrb	r3, [r3]
 755 03fa 352B     		cmp	r3, #53
 756 03fc 10D1     		bne	.L30
 158:app_UART.c    ****         WriteArray[(8+k)] = (uint8) 0x35;   
 757              		.loc 1 158 0
 758 03fe 8C23     		movs	r3, #140
 759 0400 FB18     		adds	r3, r7, r3
 760 0402 1B68     		ldr	r3, [r3]
 761 0404 0833     		adds	r3, r3, #8
 762 0406 3822     		movs	r2, #56
 763 0408 2021     		movs	r1, #32
 764 040a 8C46     		mov	ip, r1
 765 040c BC44     		add	ip, ip, r7
 766 040e 6244     		add	r2, r2, ip
 767 0410 3521     		movs	r1, #53
 768 0412 D154     		strb	r1, [r2, r3]
 769 0414 5FE0     		b	.L25
 770              	.L37:
 771 0416 C046     		.align	2
 772              	.L36:
 773 0418 00000000 		.word	mtuSize
 774 041c 10000000 		.word	.LC3
 775              	.L30:
 159:app_UART.c    ****         }else if (test == '6'){
 776              		.loc 1 159 0
 777 0420 4A23     		movs	r3, #74
 778 0422 2022     		movs	r2, #32
 779 0424 9446     		mov	ip, r2
 780 0426 BC44     		add	ip, ip, r7
 781 0428 6344     		add	r3, r3, ip
 782 042a 1B78     		ldrb	r3, [r3]
 783 042c 362B     		cmp	r3, #54
 784 042e 0BD1     		bne	.L31
 160:app_UART.c    ****         WriteArray[(8+k)] = (uint8) 0x36;   
 785              		.loc 1 160 0
 786 0430 8C23     		movs	r3, #140
 787 0432 FB18     		adds	r3, r7, r3
 788 0434 1B68     		ldr	r3, [r3]
 789 0436 0833     		adds	r3, r3, #8
 790 0438 3822     		movs	r2, #56
 791 043a 2021     		movs	r1, #32
 792 043c 8C46     		mov	ip, r1
 793 043e BC44     		add	ip, ip, r7
 794 0440 6244     		add	r2, r2, ip
 795 0442 3621     		movs	r1, #54
 796 0444 D154     		strb	r1, [r2, r3]
 797 0446 46E0     		b	.L25
 798              	.L31:
 161:app_UART.c    ****         }else if (test == '7'){
 799              		.loc 1 161 0
 800 0448 4A23     		movs	r3, #74
 801 044a 2022     		movs	r2, #32
 802 044c 9446     		mov	ip, r2
ARM GAS  C:\Users\BENAKA~1\AppData\Local\Temp\cchf5c2F.s 			page 18


 803 044e BC44     		add	ip, ip, r7
 804 0450 6344     		add	r3, r3, ip
 805 0452 1B78     		ldrb	r3, [r3]
 806 0454 372B     		cmp	r3, #55
 807 0456 0BD1     		bne	.L32
 162:app_UART.c    ****         WriteArray[(8+k)] = (uint8) 0x37;   
 808              		.loc 1 162 0
 809 0458 8C23     		movs	r3, #140
 810 045a FB18     		adds	r3, r7, r3
 811 045c 1B68     		ldr	r3, [r3]
 812 045e 0833     		adds	r3, r3, #8
 813 0460 3822     		movs	r2, #56
 814 0462 2021     		movs	r1, #32
 815 0464 8C46     		mov	ip, r1
 816 0466 BC44     		add	ip, ip, r7
 817 0468 6244     		add	r2, r2, ip
 818 046a 3721     		movs	r1, #55
 819 046c D154     		strb	r1, [r2, r3]
 820 046e 32E0     		b	.L25
 821              	.L32:
 163:app_UART.c    ****         }else if (test == '8'){
 822              		.loc 1 163 0
 823 0470 4A23     		movs	r3, #74
 824 0472 2022     		movs	r2, #32
 825 0474 9446     		mov	ip, r2
 826 0476 BC44     		add	ip, ip, r7
 827 0478 6344     		add	r3, r3, ip
 828 047a 1B78     		ldrb	r3, [r3]
 829 047c 382B     		cmp	r3, #56
 830 047e 0BD1     		bne	.L33
 164:app_UART.c    ****         WriteArray[(8+k)] = (uint8) 0x38;   
 831              		.loc 1 164 0
 832 0480 8C23     		movs	r3, #140
 833 0482 FB18     		adds	r3, r7, r3
 834 0484 1B68     		ldr	r3, [r3]
 835 0486 0833     		adds	r3, r3, #8
 836 0488 3822     		movs	r2, #56
 837 048a 2021     		movs	r1, #32
 838 048c 8C46     		mov	ip, r1
 839 048e BC44     		add	ip, ip, r7
 840 0490 6244     		add	r2, r2, ip
 841 0492 3821     		movs	r1, #56
 842 0494 D154     		strb	r1, [r2, r3]
 843 0496 1EE0     		b	.L25
 844              	.L33:
 165:app_UART.c    ****         }else if (test == '9'){
 845              		.loc 1 165 0
 846 0498 4A23     		movs	r3, #74
 847 049a 2022     		movs	r2, #32
 848 049c 9446     		mov	ip, r2
 849 049e BC44     		add	ip, ip, r7
 850 04a0 6344     		add	r3, r3, ip
 851 04a2 1B78     		ldrb	r3, [r3]
 852 04a4 392B     		cmp	r3, #57
 853 04a6 0BD1     		bne	.L34
 166:app_UART.c    ****         WriteArray[(8+k)] = (uint8) 0x39;   
 854              		.loc 1 166 0
ARM GAS  C:\Users\BENAKA~1\AppData\Local\Temp\cchf5c2F.s 			page 19


 855 04a8 8C23     		movs	r3, #140
 856 04aa FB18     		adds	r3, r7, r3
 857 04ac 1B68     		ldr	r3, [r3]
 858 04ae 0833     		adds	r3, r3, #8
 859 04b0 3822     		movs	r2, #56
 860 04b2 2021     		movs	r1, #32
 861 04b4 8C46     		mov	ip, r1
 862 04b6 BC44     		add	ip, ip, r7
 863 04b8 6244     		add	r2, r2, ip
 864 04ba 3921     		movs	r1, #57
 865 04bc D154     		strb	r1, [r2, r3]
 866 04be 0AE0     		b	.L25
 867              	.L34:
 167:app_UART.c    ****         } else
 168:app_UART.c    ****         WriteArray[(8+k)] = (uint8) 0x40;
 868              		.loc 1 168 0
 869 04c0 8C23     		movs	r3, #140
 870 04c2 FB18     		adds	r3, r7, r3
 871 04c4 1B68     		ldr	r3, [r3]
 872 04c6 0833     		adds	r3, r3, #8
 873 04c8 3822     		movs	r2, #56
 874 04ca 2021     		movs	r1, #32
 875 04cc 8C46     		mov	ip, r1
 876 04ce BC44     		add	ip, ip, r7
 877 04d0 6244     		add	r2, r2, ip
 878 04d2 4021     		movs	r1, #64
 879 04d4 D154     		strb	r1, [r2, r3]
 880              	.L25:
 881              	.LBE3:
 145:app_UART.c    ****         char test = resultString[k];
 882              		.loc 1 145 0 discriminator 2
 883 04d6 8C23     		movs	r3, #140
 884 04d8 FB18     		adds	r3, r7, r3
 885 04da 1B68     		ldr	r3, [r3]
 886 04dc 0133     		adds	r3, r3, #1
 887 04de 8C22     		movs	r2, #140
 888 04e0 BA18     		adds	r2, r7, r2
 889 04e2 1360     		str	r3, [r2]
 890              	.L23:
 145:app_UART.c    ****         char test = resultString[k];
 891              		.loc 1 145 0 is_stmt 0 discriminator 1
 892 04e4 8C23     		movs	r3, #140
 893 04e6 FB18     		adds	r3, r7, r3
 894 04e8 1B68     		ldr	r3, [r3]
 895 04ea 082B     		cmp	r3, #8
 896 04ec 00DC     		bgt	.LCB802
 897 04ee 0DE7     		b	.L35	@long jump
 898              	.LCB802:
 169:app_UART.c    ****     }
 170:app_UART.c    ****     
 171:app_UART.c    **** //    StoreInFlash(WriteArray, 16);
 172:app_UART.c    **** 
 173:app_UART.c    **** //    memcpy(flash_storage,WriteArray2, 16);
 174:app_UART.c    **** 
 175:app_UART.c    **** 
 176:app_UART.c    ****     uartTxDataWriteCmd.value.len  = 20;
 899              		.loc 1 176 0 is_stmt 1
ARM GAS  C:\Users\BENAKA~1\AppData\Local\Temp\cchf5c2F.s 			page 20


 900 04f0 2C23     		movs	r3, #44
 901 04f2 2022     		movs	r2, #32
 902 04f4 9446     		mov	ip, r2
 903 04f6 BC44     		add	ip, ip, r7
 904 04f8 6344     		add	r3, r3, ip
 905 04fa 1422     		movs	r2, #20
 906 04fc 9A80     		strh	r2, [r3, #4]
 177:app_UART.c    ****     uartTxDataWriteCmd.attrHandle = rxCharHandle;
 907              		.loc 1 177 0
 908 04fe 164B     		ldr	r3, .L38
 909 0500 1A88     		ldrh	r2, [r3]
 910 0502 2C23     		movs	r3, #44
 911 0504 2021     		movs	r1, #32
 912 0506 8C46     		mov	ip, r1
 913 0508 BC44     		add	ip, ip, r7
 914 050a 6344     		add	r3, r3, ip
 915 050c 1A81     		strh	r2, [r3, #8]
 178:app_UART.c    ****     uartTxDataWriteCmd.value.val  = WriteArray;          
 916              		.loc 1 178 0
 917 050e 2C23     		movs	r3, #44
 918 0510 2022     		movs	r2, #32
 919 0512 9446     		mov	ip, r2
 920 0514 BC44     		add	ip, ip, r7
 921 0516 6344     		add	r3, r3, ip
 922 0518 3822     		movs	r2, #56
 923 051a 2021     		movs	r1, #32
 924 051c 8C46     		mov	ip, r1
 925 051e BC44     		add	ip, ip, r7
 926 0520 6244     		add	r2, r2, ip
 927 0522 1A60     		str	r2, [r3]
 179:app_UART.c    **** 
 180:app_UART.c    ****     CyBle_GattcWriteWithoutResponse(cyBle_connHandle, &uartTxDataWriteCmd);
 928              		.loc 1 180 0
 929 0524 2C23     		movs	r3, #44
 930 0526 2022     		movs	r2, #32
 931 0528 BA18     		adds	r2, r7, r2
 932 052a D118     		adds	r1, r2, r3
 933 052c 0B4B     		ldr	r3, .L38+4
 934 052e 1A78     		ldrb	r2, [r3]
 935 0530 5B78     		ldrb	r3, [r3, #1]
 936 0532 1B02     		lsls	r3, r3, #8
 937 0534 1A43     		orrs	r2, r3
 938 0536 0023     		movs	r3, #0
 939 0538 1204     		lsls	r2, r2, #16
 940 053a 120C     		lsrs	r2, r2, #16
 941 053c 1B0C     		lsrs	r3, r3, #16
 942 053e 1B04     		lsls	r3, r3, #16
 943 0540 1343     		orrs	r3, r2
 944 0542 1800     		movs	r0, r3
 945 0544 FFF7FEFF 		bl	CyBle_GattcWriteWithoutResponse
 181:app_UART.c    ****     CyBle_ProcessEvents();
 946              		.loc 1 181 0
 947 0548 FFF7FEFF 		bl	CyBle_ProcessEvents
 948 054c 7B68     		ldr	r3, [r7, #4]
 949 054e 9D46     		mov	sp, r3
 182:app_UART.c    **** 
 183:app_UART.c    **** 
ARM GAS  C:\Users\BENAKA~1\AppData\Local\Temp\cchf5c2F.s 			page 21


 184:app_UART.c    ****    
 185:app_UART.c    **** }
 950              		.loc 1 185 0
 951 0550 C046     		nop
 952 0552 BD46     		mov	sp, r7
 953 0554 25B0     		add	sp, sp, #148
 954              		@ sp needed
 955 0556 F0BD     		pop	{r4, r5, r6, r7, pc}
 956              	.L39:
 957              		.align	2
 958              	.L38:
 959 0558 00000000 		.word	rxCharHandle
 960 055c 00000000 		.word	cyBle_connHandle
 961              		.cfi_endproc
 962              	.LFE38:
 963              		.size	HandleUartTxTraffic, .-HandleUartTxTraffic
 964              		.section	.text.DisableUartRxInt,"ax",%progbits
 965              		.align	2
 966              		.global	DisableUartRxInt
 967              		.code	16
 968              		.thumb_func
 969              		.type	DisableUartRxInt, %function
 970              	DisableUartRxInt:
 971              	.LFB39:
 186:app_UART.c    **** 
 187:app_UART.c    **** 
 188:app_UART.c    **** 
 189:app_UART.c    **** 
 190:app_UART.c    **** /*****************************************************************************************
 191:app_UART.c    **** * Function Name: DisableUartRxInt
 192:app_UART.c    **** ******************************************************************************************
 193:app_UART.c    **** *
 194:app_UART.c    **** * Summary:
 195:app_UART.c    **** *  This function disables the UART RX interrupt.
 196:app_UART.c    **** *
 197:app_UART.c    **** * Parameters:
 198:app_UART.c    **** *   None.
 199:app_UART.c    **** *
 200:app_UART.c    **** * Return:
 201:app_UART.c    **** *   None.
 202:app_UART.c    **** *
 203:app_UART.c    **** *****************************************************************************************/
 204:app_UART.c    **** void DisableUartRxInt(void)
 205:app_UART.c    **** {
 972              		.loc 1 205 0
 973              		.cfi_startproc
 974              		@ args = 0, pretend = 0, frame = 0
 975              		@ frame_needed = 1, uses_anonymous_args = 0
 976 0000 80B5     		push	{r7, lr}
 977              		.cfi_def_cfa_offset 8
 978              		.cfi_offset 7, -8
 979              		.cfi_offset 14, -4
 980 0002 00AF     		add	r7, sp, #0
 981              		.cfi_def_cfa_register 7
 206:app_UART.c    ****     UART_INTR_RX_MASK_REG &= ~UART_RX_INTR_MASK;  
 982              		.loc 1 206 0
 983 0004 044B     		ldr	r3, .L41
ARM GAS  C:\Users\BENAKA~1\AppData\Local\Temp\cchf5c2F.s 			page 22


 984 0006 044A     		ldr	r2, .L41
 985 0008 1268     		ldr	r2, [r2]
 986 000a 0421     		movs	r1, #4
 987 000c 8A43     		bics	r2, r1
 988 000e 1A60     		str	r2, [r3]
 207:app_UART.c    **** }
 989              		.loc 1 207 0
 990 0010 C046     		nop
 991 0012 BD46     		mov	sp, r7
 992              		@ sp needed
 993 0014 80BD     		pop	{r7, pc}
 994              	.L42:
 995 0016 C046     		.align	2
 996              	.L41:
 997 0018 C80F2440 		.word	1076105160
 998              		.cfi_endproc
 999              	.LFE39:
 1000              		.size	DisableUartRxInt, .-DisableUartRxInt
 1001              		.section	.text.EnableUartRxInt,"ax",%progbits
 1002              		.align	2
 1003              		.global	EnableUartRxInt
 1004              		.code	16
 1005              		.thumb_func
 1006              		.type	EnableUartRxInt, %function
 1007              	EnableUartRxInt:
 1008              	.LFB40:
 208:app_UART.c    **** 
 209:app_UART.c    **** /*****************************************************************************************
 210:app_UART.c    **** * Function Name: EnableUartRxInt
 211:app_UART.c    **** ******************************************************************************************
 212:app_UART.c    **** *
 213:app_UART.c    **** * Summary:
 214:app_UART.c    **** *  This function enables the UART RX interrupt.
 215:app_UART.c    **** *
 216:app_UART.c    **** * Parameters:
 217:app_UART.c    **** *   None.
 218:app_UART.c    **** *
 219:app_UART.c    **** * Return:
 220:app_UART.c    **** *   None.
 221:app_UART.c    **** *
 222:app_UART.c    **** *****************************************************************************************/
 223:app_UART.c    **** void EnableUartRxInt(void)
 224:app_UART.c    **** {
 1009              		.loc 1 224 0
 1010              		.cfi_startproc
 1011              		@ args = 0, pretend = 0, frame = 0
 1012              		@ frame_needed = 1, uses_anonymous_args = 0
 1013 0000 80B5     		push	{r7, lr}
 1014              		.cfi_def_cfa_offset 8
 1015              		.cfi_offset 7, -8
 1016              		.cfi_offset 14, -4
 1017 0002 00AF     		add	r7, sp, #0
 1018              		.cfi_def_cfa_register 7
 225:app_UART.c    ****     UART_INTR_RX_MASK_REG |= UART_RX_INTR_MASK;  
 1019              		.loc 1 225 0
 1020 0004 044B     		ldr	r3, .L44
 1021 0006 044A     		ldr	r2, .L44
ARM GAS  C:\Users\BENAKA~1\AppData\Local\Temp\cchf5c2F.s 			page 23


 1022 0008 1268     		ldr	r2, [r2]
 1023 000a 0421     		movs	r1, #4
 1024 000c 0A43     		orrs	r2, r1
 1025 000e 1A60     		str	r2, [r3]
 226:app_UART.c    **** }
 1026              		.loc 1 226 0
 1027 0010 C046     		nop
 1028 0012 BD46     		mov	sp, r7
 1029              		@ sp needed
 1030 0014 80BD     		pop	{r7, pc}
 1031              	.L45:
 1032 0016 C046     		.align	2
 1033              	.L44:
 1034 0018 C80F2440 		.word	1076105160
 1035              		.cfi_endproc
 1036              	.LFE40:
 1037              		.size	EnableUartRxInt, .-EnableUartRxInt
 1038              		.text
 1039              	.Letext0:
 1040              		.file 2 "c:\\program files (x86)\\cypress\\psoc creator\\4.2\\psoc creator\\import\\gnu\\arm\\5.4.
 1041              		.file 3 "c:\\program files (x86)\\cypress\\psoc creator\\4.2\\psoc creator\\import\\gnu\\arm\\5.4.
 1042              		.file 4 "Generated_Source\\PSoC4/cytypes.h"
 1043              		.file 5 "Generated_Source\\PSoC4/BLE_Stack.h"
 1044              		.file 6 "Generated_Source\\PSoC4/BLE_StackGatt.h"
 1045              		.file 7 "Generated_Source\\PSoC4/BLE_StackGattClient.h"
 1046              		.file 8 "Generated_Source\\PSoC4/BLE_eventHandler.h"
 1047              		.file 9 "app_UART.h"