ARM GAS  C:\Users\BENAKA~1\AppData\Local\Temp\cc21VN9u.s 			page 1


   1              		.syntax unified
   2              		.cpu cortex-m0
   3              		.fpu softvfp
   4              		.eabi_attribute 20, 1
   5              		.eabi_attribute 21, 1
   6              		.eabi_attribute 23, 3
   7              		.eabi_attribute 24, 1
   8              		.eabi_attribute 25, 1
   9              		.eabi_attribute 26, 1
  10              		.eabi_attribute 30, 6
  11              		.eabi_attribute 34, 0
  12              		.eabi_attribute 18, 4
  13              		.thumb
  14              		.syntax unified
  15              		.file	"FRam.c"
  16              		.text
  17              	.Ltext0:
  18              		.cfi_sections	.debug_frame
  19              		.bss
  20              		.align	1
  21              	LowerAddress:
  22 0000 0000     		.space	2
  23              	I2CAddress:
  24 0002 00       		.space	1
  25              		.section	.text.FRam_Start,"ax",%progbits
  26              		.align	2
  27              		.global	FRam_Start
  28              		.code	16
  29              		.thumb_func
  30              		.type	FRam_Start, %function
  31              	FRam_Start:
  32              	.LFB35:
  33              		.file 1 "FRam.c"
   1:FRam.c        **** //***********************************************************************************//
   2:FRam.c        **** //*	Project:	PSoC4 BLE Access to the FRam										*//
   3:FRam.c        **** //*																					*//
   4:FRam.c        **** //*	File:		FRam.c			 													*//
   5:FRam.c        **** //*	Version:	1.0																	*//
   6:FRam.c        **** //*																					*//
   7:FRam.c        **** //*	Author:		Bob Marlowe															*//
   8:FRam.c        **** //*	(C) 2014	Jörg Meier Software - Entwicklung briefe@jmeiersoftware.de			*//
   9:FRam.c        **** //***********************************************************************************//
  10:FRam.c        **** //***********************************************************************************//
  11:FRam.c        **** //*																					*//
  12:FRam.c        **** //*		Principles of Operation														*//
  13:FRam.c        **** //*		Simply accessing the FM2010 on the Pioneer BLE board using 					*//
  14:FRam.c        **** //*		the I2C interface															*//
  15:FRam.c        **** //*																					*//
  16:FRam.c        **** //*		The function SelectHiClock switches the FRam to max 1MByte/s transfer rate	*//
  17:FRam.c        **** //*		and the ClockHiLO to 16MHz.													*//
  18:FRam.c        **** //*		After a successful transmition (FRam_Read or Write) the clock is switched	*//
  19:FRam.c        **** //*		back to normal 6.4MHz resulting in 400kByte/s								*//
  20:FRam.c        **** //*																					*//
  21:FRam.c        **** //***********************************************************************************//
  22:FRam.c        **** 
  23:FRam.c        **** //***********************************************************************************//
  24:FRam.c        **** //**************** Libraries ********************************************************//
ARM GAS  C:\Users\BENAKA~1\AppData\Local\Temp\cc21VN9u.s 			page 2


  25:FRam.c        **** //***********************************************************************************//
  26:FRam.c        **** #include <FRam.h>
  27:FRam.c        **** 
  28:FRam.c        **** //***********************************************************************************//
  29:FRam.c        **** //**************** Definitions and Macros *******************************************//
  30:FRam.c        **** //***********************************************************************************//
  31:FRam.c        **** //	None yet
  32:FRam.c        **** 
  33:FRam.c        **** //***********************************************************************************//
  34:FRam.c        **** //******************* Structs, Typedefs and Enums ***********************************//
  35:FRam.c        **** //***********************************************************************************//
  36:FRam.c        **** //	None yet
  37:FRam.c        **** 
  38:FRam.c        **** //***********************************************************************************//
  39:FRam.c        **** //******************* Data Area *****************************************************//
  40:FRam.c        **** //***********************************************************************************//
  41:FRam.c        **** static uint16 LowerAddress;
  42:FRam.c        **** static uint8 I2CAddress;
  43:FRam.c        **** 
  44:FRam.c        **** //***********************************************************************************//
  45:FRam.c        **** //****************** Prototypes *****************************************************//
  46:FRam.c        **** //***********************************************************************************//
  47:FRam.c        **** static uint32 SetFramAddress(void *FRamAddress);
  48:FRam.c        **** 
  49:FRam.c        **** //***********************************************************************************//
  50:FRam.c        **** //****************** Program Area ***************************************************//
  51:FRam.c        **** //***********************************************************************************//
  52:FRam.c        **** void FRam_Start(void)														//	Start all needed components
  53:FRam.c        **** {
  34              		.loc 1 53 0
  35              		.cfi_startproc
  36              		@ args = 0, pretend = 0, frame = 0
  37              		@ frame_needed = 1, uses_anonymous_args = 0
  38 0000 80B5     		push	{r7, lr}
  39              		.cfi_def_cfa_offset 8
  40              		.cfi_offset 7, -8
  41              		.cfi_offset 14, -4
  42 0002 00AF     		add	r7, sp, #0
  43              		.cfi_def_cfa_register 7
  54:FRam.c        **** 	Clock_HiLo_Start();
  44              		.loc 1 54 0
  45 0004 FF20     		movs	r0, #255
  46 0006 FFF7FEFF 		bl	Clock_HiLo_StartEx
  55:FRam.c        **** 	FRamInterface_Start();
  47              		.loc 1 55 0
  48 000a FFF7FEFF 		bl	FRamInterface_Start
  56:FRam.c        **** }
  49              		.loc 1 56 0
  50 000e C046     		nop
  51 0010 BD46     		mov	sp, r7
  52              		@ sp needed
  53 0012 80BD     		pop	{r7, pc}
  54              		.cfi_endproc
  55              	.LFE35:
  56              		.size	FRam_Start, .-FRam_Start
  57              		.section	.text.FRam_Write,"ax",%progbits
  58              		.align	2
ARM GAS  C:\Users\BENAKA~1\AppData\Local\Temp\cc21VN9u.s 			page 3


  59              		.global	FRam_Write
  60              		.code	16
  61              		.thumb_func
  62              		.type	FRam_Write, %function
  63              	FRam_Write:
  64              	.LFB36:
  57:FRam.c        **** //**********************************************************************
  58:FRam.c        **** 
  59:FRam.c        **** uint32 FRam_Write(uint8 * Data, void * FRamAddress, uint16 Count)			//	Write to FRam
  60:FRam.c        **** {
  65              		.loc 1 60 0
  66              		.cfi_startproc
  67              		@ args = 0, pretend = 0, frame = 24
  68              		@ frame_needed = 1, uses_anonymous_args = 0
  69 0000 80B5     		push	{r7, lr}
  70              		.cfi_def_cfa_offset 8
  71              		.cfi_offset 7, -8
  72              		.cfi_offset 14, -4
  73 0002 86B0     		sub	sp, sp, #24
  74              		.cfi_def_cfa_offset 32
  75 0004 00AF     		add	r7, sp, #0
  76              		.cfi_def_cfa_register 7
  77 0006 F860     		str	r0, [r7, #12]
  78 0008 B960     		str	r1, [r7, #8]
  79 000a BB1D     		adds	r3, r7, #6
  80 000c 1A80     		strh	r2, [r3]
  61:FRam.c        **** uint32	Result;
  62:FRam.c        **** uint16	ii = 0;
  81              		.loc 1 62 0
  82 000e 1623     		movs	r3, #22
  83 0010 FB18     		adds	r3, r7, r3
  84 0012 0022     		movs	r2, #0
  85 0014 1A80     		strh	r2, [r3]
  63:FRam.c        **** 	
  64:FRam.c        **** 	if((Result = SetFramAddress(FRamAddress))) return Result;
  86              		.loc 1 64 0
  87 0016 BB68     		ldr	r3, [r7, #8]
  88 0018 1800     		movs	r0, r3
  89 001a FFF7FEFF 		bl	SetFramAddress
  90 001e 0300     		movs	r3, r0
  91 0020 3B61     		str	r3, [r7, #16]
  92 0022 3B69     		ldr	r3, [r7, #16]
  93 0024 002B     		cmp	r3, #0
  94 0026 15D0     		beq	.L5
  95              		.loc 1 64 0 is_stmt 0 discriminator 1
  96 0028 3B69     		ldr	r3, [r7, #16]
  97 002a 2AE0     		b	.L4
  98              	.L6:
  65:FRam.c        **** 	
  66:FRam.c        **** 	while(ii++ < Count)
  67:FRam.c        **** 	{
  68:FRam.c        **** 		Result = FRamInterface_I2CMasterWriteByte((uint32)(*(Data + ii)),1000);
  99              		.loc 1 68 0 is_stmt 1
 100 002c 1623     		movs	r3, #22
 101 002e FB18     		adds	r3, r7, r3
 102 0030 1B88     		ldrh	r3, [r3]
 103 0032 FA68     		ldr	r2, [r7, #12]
ARM GAS  C:\Users\BENAKA~1\AppData\Local\Temp\cc21VN9u.s 			page 4


 104 0034 D318     		adds	r3, r2, r3
 105 0036 1B78     		ldrb	r3, [r3]
 106 0038 1A00     		movs	r2, r3
 107 003a FA23     		movs	r3, #250
 108 003c 9B00     		lsls	r3, r3, #2
 109 003e 1900     		movs	r1, r3
 110 0040 1000     		movs	r0, r2
 111 0042 FFF7FEFF 		bl	FRamInterface_I2CMasterWriteByte
 112 0046 0300     		movs	r3, r0
 113 0048 3B61     		str	r3, [r7, #16]
  69:FRam.c        **** 		if(Result) return Result;
 114              		.loc 1 69 0
 115 004a 3B69     		ldr	r3, [r7, #16]
 116 004c 002B     		cmp	r3, #0
 117 004e 01D0     		beq	.L5
 118              		.loc 1 69 0 is_stmt 0 discriminator 1
 119 0050 3B69     		ldr	r3, [r7, #16]
 120 0052 16E0     		b	.L4
 121              	.L5:
  66:FRam.c        **** 	{
 122              		.loc 1 66 0 is_stmt 1
 123 0054 1623     		movs	r3, #22
 124 0056 FB18     		adds	r3, r7, r3
 125 0058 1B88     		ldrh	r3, [r3]
 126 005a 1622     		movs	r2, #22
 127 005c BA18     		adds	r2, r7, r2
 128 005e 591C     		adds	r1, r3, #1
 129 0060 1180     		strh	r1, [r2]
 130 0062 BA1D     		adds	r2, r7, #6
 131 0064 1288     		ldrh	r2, [r2]
 132 0066 9A42     		cmp	r2, r3
 133 0068 E0D8     		bhi	.L6
  70:FRam.c        **** 	}
  71:FRam.c        **** 	Result = FRamInterface_I2CMasterSendStop(1000);
 134              		.loc 1 71 0
 135 006a FA23     		movs	r3, #250
 136 006c 9B00     		lsls	r3, r3, #2
 137 006e 1800     		movs	r0, r3
 138 0070 FFF7FEFF 		bl	FRamInterface_I2CMasterSendStop
 139 0074 0300     		movs	r3, r0
 140 0076 3B61     		str	r3, [r7, #16]
  72:FRam.c        **** 	Clock_HiLo_SetFractionalDividerRegister(6,167);
 141              		.loc 1 72 0
 142 0078 A721     		movs	r1, #167
 143 007a 0620     		movs	r0, #6
 144 007c FFF7FEFF 		bl	Clock_HiLo_SetFractionalDividerRegister
  73:FRam.c        **** 	return Result;
 145              		.loc 1 73 0
 146 0080 3B69     		ldr	r3, [r7, #16]
 147              	.L4:
  74:FRam.c        **** }
 148              		.loc 1 74 0
 149 0082 1800     		movs	r0, r3
 150 0084 BD46     		mov	sp, r7
 151 0086 06B0     		add	sp, sp, #24
 152              		@ sp needed
 153 0088 80BD     		pop	{r7, pc}
ARM GAS  C:\Users\BENAKA~1\AppData\Local\Temp\cc21VN9u.s 			page 5


 154              		.cfi_endproc
 155              	.LFE36:
 156              		.size	FRam_Write, .-FRam_Write
 157 008a C046     		.section	.text.FRam_Read,"ax",%progbits
 158              		.align	2
 159              		.global	FRam_Read
 160              		.code	16
 161              		.thumb_func
 162              		.type	FRam_Read, %function
 163              	FRam_Read:
 164              	.LFB37:
  75:FRam.c        **** //**********************************************************************
  76:FRam.c        **** 
  77:FRam.c        **** uint32 FRam_Read (uint8 * Destination, void * FRamAddress, uint16 Count)	//	Read from FRam
  78:FRam.c        **** {
 165              		.loc 1 78 0
 166              		.cfi_startproc
 167              		@ args = 0, pretend = 0, frame = 24
 168              		@ frame_needed = 1, uses_anonymous_args = 0
 169 0000 B0B5     		push	{r4, r5, r7, lr}
 170              		.cfi_def_cfa_offset 16
 171              		.cfi_offset 4, -16
 172              		.cfi_offset 5, -12
 173              		.cfi_offset 7, -8
 174              		.cfi_offset 14, -4
 175 0002 86B0     		sub	sp, sp, #24
 176              		.cfi_def_cfa_offset 40
 177 0004 00AF     		add	r7, sp, #0
 178              		.cfi_def_cfa_register 7
 179 0006 F860     		str	r0, [r7, #12]
 180 0008 B960     		str	r1, [r7, #8]
 181 000a BB1D     		adds	r3, r7, #6
 182 000c 1A80     		strh	r2, [r3]
  79:FRam.c        **** uint32	Result;
  80:FRam.c        **** uint16	ii = 0;
 183              		.loc 1 80 0
 184 000e 1623     		movs	r3, #22
 185 0010 FB18     		adds	r3, r7, r3
 186 0012 0022     		movs	r2, #0
 187 0014 1A80     		strh	r2, [r3]
  81:FRam.c        **** 	
  82:FRam.c        **** 	if((Result = SetFramAddress(FRamAddress))) return Result;
 188              		.loc 1 82 0
 189 0016 BB68     		ldr	r3, [r7, #8]
 190 0018 1800     		movs	r0, r3
 191 001a FFF7FEFF 		bl	SetFramAddress
 192 001e 0300     		movs	r3, r0
 193 0020 3B61     		str	r3, [r7, #16]
 194 0022 3B69     		ldr	r3, [r7, #16]
 195 0024 002B     		cmp	r3, #0
 196 0026 01D0     		beq	.L8
 197              		.loc 1 82 0 is_stmt 0 discriminator 1
 198 0028 3B69     		ldr	r3, [r7, #16]
 199 002a 47E0     		b	.L9
 200              	.L8:
  83:FRam.c        **** 	
  84:FRam.c        **** 	Result = FRamInterface_I2CMasterSendRestart(I2CAddress,SetFramAddress(FRamAddress),1000);
ARM GAS  C:\Users\BENAKA~1\AppData\Local\Temp\cc21VN9u.s 			page 6


 201              		.loc 1 84 0 is_stmt 1
 202 002c 254B     		ldr	r3, .L13
 203 002e 1B78     		ldrb	r3, [r3]
 204 0030 1C00     		movs	r4, r3
 205 0032 BB68     		ldr	r3, [r7, #8]
 206 0034 1800     		movs	r0, r3
 207 0036 FFF7FEFF 		bl	SetFramAddress
 208 003a 0100     		movs	r1, r0
 209 003c FA23     		movs	r3, #250
 210 003e 9B00     		lsls	r3, r3, #2
 211 0040 1A00     		movs	r2, r3
 212 0042 2000     		movs	r0, r4
 213 0044 FFF7FEFF 		bl	FRamInterface_I2CMasterSendRestart
 214 0048 0300     		movs	r3, r0
 215 004a 3B61     		str	r3, [r7, #16]
  85:FRam.c        **** 	if(Result) return Result;
 216              		.loc 1 85 0
 217 004c 3B69     		ldr	r3, [r7, #16]
 218 004e 002B     		cmp	r3, #0
 219 0050 1DD0     		beq	.L11
 220              		.loc 1 85 0 is_stmt 0 discriminator 1
 221 0052 3B69     		ldr	r3, [r7, #16]
 222 0054 32E0     		b	.L9
 223              	.L12:
  86:FRam.c        **** 
  87:FRam.c        **** 	while(ii++ < Count)
  88:FRam.c        **** 	{
  89:FRam.c        **** 		*(Destination++)= FRamInterface_I2CMasterReadByte(ii < (Count)?FRamInterface_I2C_ACK_DATA:FRamInt
 224              		.loc 1 89 0 is_stmt 1
 225 0056 FC68     		ldr	r4, [r7, #12]
 226 0058 631C     		adds	r3, r4, #1
 227 005a FB60     		str	r3, [r7, #12]
 228 005c 1623     		movs	r3, #22
 229 005e FA18     		adds	r2, r7, r3
 230 0060 BB1D     		adds	r3, r7, #6
 231 0062 1188     		ldrh	r1, [r2]
 232 0064 1A88     		ldrh	r2, [r3]
 233 0066 0023     		movs	r3, #0
 234 0068 9142     		cmp	r1, r2
 235 006a 5B41     		adcs	r3, r3, r3
 236 006c DBB2     		uxtb	r3, r3
 237 006e 1D00     		movs	r5, r3
 238 0070 BB68     		ldr	r3, [r7, #8]
 239 0072 1800     		movs	r0, r3
 240 0074 FFF7FEFF 		bl	SetFramAddress
 241 0078 0300     		movs	r3, r0
 242 007a 1900     		movs	r1, r3
 243 007c FA23     		movs	r3, #250
 244 007e 9B00     		lsls	r3, r3, #2
 245 0080 1A00     		movs	r2, r3
 246 0082 2800     		movs	r0, r5
 247 0084 FFF7FEFF 		bl	FRamInterface_I2CMasterReadByte
 248 0088 0300     		movs	r3, r0
 249 008a DBB2     		uxtb	r3, r3
 250 008c 2370     		strb	r3, [r4]
 251              	.L11:
  87:FRam.c        **** 	{
ARM GAS  C:\Users\BENAKA~1\AppData\Local\Temp\cc21VN9u.s 			page 7


 252              		.loc 1 87 0
 253 008e 1623     		movs	r3, #22
 254 0090 FB18     		adds	r3, r7, r3
 255 0092 1B88     		ldrh	r3, [r3]
 256 0094 1622     		movs	r2, #22
 257 0096 BA18     		adds	r2, r7, r2
 258 0098 591C     		adds	r1, r3, #1
 259 009a 1180     		strh	r1, [r2]
 260 009c BA1D     		adds	r2, r7, #6
 261 009e 1288     		ldrh	r2, [r2]
 262 00a0 9A42     		cmp	r2, r3
 263 00a2 D8D8     		bhi	.L12
  90:FRam.c        **** 	}
  91:FRam.c        **** 	Result = FRamInterface_I2CMasterSendStop(1000);
 264              		.loc 1 91 0
 265 00a4 FA23     		movs	r3, #250
 266 00a6 9B00     		lsls	r3, r3, #2
 267 00a8 1800     		movs	r0, r3
 268 00aa FFF7FEFF 		bl	FRamInterface_I2CMasterSendStop
 269 00ae 0300     		movs	r3, r0
 270 00b0 3B61     		str	r3, [r7, #16]
  92:FRam.c        **** 	Clock_HiLo_SetFractionalDividerRegister(6,16);
 271              		.loc 1 92 0
 272 00b2 1021     		movs	r1, #16
 273 00b4 0620     		movs	r0, #6
 274 00b6 FFF7FEFF 		bl	Clock_HiLo_SetFractionalDividerRegister
  93:FRam.c        **** 	return Result;
 275              		.loc 1 93 0
 276 00ba 3B69     		ldr	r3, [r7, #16]
 277              	.L9:
  94:FRam.c        **** }
 278              		.loc 1 94 0
 279 00bc 1800     		movs	r0, r3
 280 00be BD46     		mov	sp, r7
 281 00c0 06B0     		add	sp, sp, #24
 282              		@ sp needed
 283 00c2 B0BD     		pop	{r4, r5, r7, pc}
 284              	.L14:
 285              		.align	2
 286              	.L13:
 287 00c4 02000000 		.word	I2CAddress
 288              		.cfi_endproc
 289              	.LFE37:
 290              		.size	FRam_Read, .-FRam_Read
 291              		.section	.text.FRam_Stop,"ax",%progbits
 292              		.align	2
 293              		.global	FRam_Stop
 294              		.code	16
 295              		.thumb_func
 296              		.type	FRam_Stop, %function
 297              	FRam_Stop:
 298              	.LFB38:
  95:FRam.c        **** //**********************************************************************
  96:FRam.c        **** 
  97:FRam.c        **** void FRam_Stop(void)														//	Stop all used components
  98:FRam.c        **** {
 299              		.loc 1 98 0
ARM GAS  C:\Users\BENAKA~1\AppData\Local\Temp\cc21VN9u.s 			page 8


 300              		.cfi_startproc
 301              		@ args = 0, pretend = 0, frame = 0
 302              		@ frame_needed = 1, uses_anonymous_args = 0
 303 0000 80B5     		push	{r7, lr}
 304              		.cfi_def_cfa_offset 8
 305              		.cfi_offset 7, -8
 306              		.cfi_offset 14, -4
 307 0002 00AF     		add	r7, sp, #0
 308              		.cfi_def_cfa_register 7
  99:FRam.c        **** 	FRamInterface_Stop();
 309              		.loc 1 99 0
 310 0004 FFF7FEFF 		bl	FRamInterface_Stop
 100:FRam.c        **** 	Clock_HiLo_Stop();
 311              		.loc 1 100 0
 312 0008 FFF7FEFF 		bl	Clock_HiLo_Stop
 101:FRam.c        **** }
 313              		.loc 1 101 0
 314 000c C046     		nop
 315 000e BD46     		mov	sp, r7
 316              		@ sp needed
 317 0010 80BD     		pop	{r7, pc}
 318              		.cfi_endproc
 319              	.LFE38:
 320              		.size	FRam_Stop, .-FRam_Stop
 321 0012 C046     		.section	.text.FRam_SelectHiClock,"ax",%progbits
 322              		.align	2
 323              		.global	FRam_SelectHiClock
 324              		.code	16
 325              		.thumb_func
 326              		.type	FRam_SelectHiClock, %function
 327              	FRam_SelectHiClock:
 328              	.LFB39:
 102:FRam.c        **** //**********************************************************************
 103:FRam.c        **** 
 104:FRam.c        **** void FRam_SelectHiClock(void)
 105:FRam.c        **** {
 329              		.loc 1 105 0
 330              		.cfi_startproc
 331              		@ args = 0, pretend = 0, frame = 0
 332              		@ frame_needed = 1, uses_anonymous_args = 0
 333 0000 80B5     		push	{r7, lr}
 334              		.cfi_def_cfa_offset 8
 335              		.cfi_offset 7, -8
 336              		.cfi_offset 14, -4
 337 0002 00AF     		add	r7, sp, #0
 338              		.cfi_def_cfa_register 7
 106:FRam.c        **** 	FRamInterface_I2CMasterSendStart(FRamHsModeCmd,FRamInterface_I2C_READ_XFER_MODE,1000);
 339              		.loc 1 106 0
 340 0004 FA23     		movs	r3, #250
 341 0006 9B00     		lsls	r3, r3, #2
 342 0008 1A00     		movs	r2, r3
 343 000a 0121     		movs	r1, #1
 344 000c 1020     		movs	r0, #16
 345 000e FFF7FEFF 		bl	FRamInterface_I2CMasterSendStart
 107:FRam.c        **** 	Clock_HiLo_SetFractionalDividerRegister(2,0);
 346              		.loc 1 107 0
 347 0012 0021     		movs	r1, #0
ARM GAS  C:\Users\BENAKA~1\AppData\Local\Temp\cc21VN9u.s 			page 9


 348 0014 0220     		movs	r0, #2
 349 0016 FFF7FEFF 		bl	Clock_HiLo_SetFractionalDividerRegister
 108:FRam.c        **** }
 350              		.loc 1 108 0
 351 001a C046     		nop
 352 001c BD46     		mov	sp, r7
 353              		@ sp needed
 354 001e 80BD     		pop	{r7, pc}
 355              		.cfi_endproc
 356              	.LFE39:
 357              		.size	FRam_SelectHiClock, .-FRam_SelectHiClock
 358              		.section	.text.SetFramAddress,"ax",%progbits
 359              		.align	2
 360              		.code	16
 361              		.thumb_func
 362              		.type	SetFramAddress, %function
 363              	SetFramAddress:
 364              	.LFB40:
 109:FRam.c        **** //**********************************************************************
 110:FRam.c        **** 
 111:FRam.c        **** static uint32 SetFramAddress(void *FRamAddress)								//	Switch to 1MByte/s transfer speed
 112:FRam.c        **** {
 365              		.loc 1 112 0
 366              		.cfi_startproc
 367              		@ args = 0, pretend = 0, frame = 16
 368              		@ frame_needed = 1, uses_anonymous_args = 0
 369 0000 80B5     		push	{r7, lr}
 370              		.cfi_def_cfa_offset 8
 371              		.cfi_offset 7, -8
 372              		.cfi_offset 14, -4
 373 0002 84B0     		sub	sp, sp, #16
 374              		.cfi_def_cfa_offset 24
 375 0004 00AF     		add	r7, sp, #0
 376              		.cfi_def_cfa_register 7
 377 0006 7860     		str	r0, [r7, #4]
 113:FRam.c        **** uint32 Result;	
 114:FRam.c        **** 	I2CAddress = FRamI2CAddress;
 378              		.loc 1 114 0
 379 0008 244B     		ldr	r3, .L22
 380 000a 5022     		movs	r2, #80
 381 000c 1A70     		strb	r2, [r3]
 115:FRam.c        **** 	if((uint32)FRamAddress & 0x1ul << 16) I2CAddress |= 0x01;				//	Isolate Address-bit 16
 382              		.loc 1 115 0
 383 000e 7A68     		ldr	r2, [r7, #4]
 384 0010 8023     		movs	r3, #128
 385 0012 5B02     		lsls	r3, r3, #9
 386 0014 1340     		ands	r3, r2
 387 0016 06D0     		beq	.L18
 388              		.loc 1 115 0 is_stmt 0 discriminator 1
 389 0018 204B     		ldr	r3, .L22
 390 001a 1B78     		ldrb	r3, [r3]
 391 001c 0122     		movs	r2, #1
 392 001e 1343     		orrs	r3, r2
 393 0020 DAB2     		uxtb	r2, r3
 394 0022 1E4B     		ldr	r3, .L22
 395 0024 1A70     		strb	r2, [r3]
 396              	.L18:
ARM GAS  C:\Users\BENAKA~1\AppData\Local\Temp\cc21VN9u.s 			page 10


 116:FRam.c        **** 	LowerAddress = LO16((uint16)((uint32)FRamAddress));						//	and insert it into slave address
 397              		.loc 1 116 0 is_stmt 1
 398 0026 7B68     		ldr	r3, [r7, #4]
 399 0028 9AB2     		uxth	r2, r3
 400 002a 1D4B     		ldr	r3, .L22+4
 401 002c 1A80     		strh	r2, [r3]
 117:FRam.c        **** 
 118:FRam.c        **** 	Result = FRamInterface_I2CMasterSendStart(I2CAddress,FRamInterface_I2C_WRITE_XFER_MODE,1000);
 402              		.loc 1 118 0
 403 002e 1B4B     		ldr	r3, .L22
 404 0030 1B78     		ldrb	r3, [r3]
 405 0032 1800     		movs	r0, r3
 406 0034 FA23     		movs	r3, #250
 407 0036 9B00     		lsls	r3, r3, #2
 408 0038 1A00     		movs	r2, r3
 409 003a 0021     		movs	r1, #0
 410 003c FFF7FEFF 		bl	FRamInterface_I2CMasterSendStart
 411 0040 0300     		movs	r3, r0
 412 0042 FB60     		str	r3, [r7, #12]
 119:FRam.c        **** 	if(Result) return Result;
 413              		.loc 1 119 0
 414 0044 FB68     		ldr	r3, [r7, #12]
 415 0046 002B     		cmp	r3, #0
 416 0048 01D0     		beq	.L19
 417              		.loc 1 119 0 is_stmt 0 discriminator 1
 418 004a FB68     		ldr	r3, [r7, #12]
 419 004c 21E0     		b	.L20
 420              	.L19:
 120:FRam.c        **** 	Result = FRamInterface_I2CMasterWriteByte((uint32)((LowerAddress >> 8) & 0x000000ff),1000);
 421              		.loc 1 120 0 is_stmt 1
 422 004e 144B     		ldr	r3, .L22+4
 423 0050 1B88     		ldrh	r3, [r3]
 424 0052 1B0A     		lsrs	r3, r3, #8
 425 0054 9BB2     		uxth	r3, r3
 426 0056 1A00     		movs	r2, r3
 427 0058 FF23     		movs	r3, #255
 428 005a 1A40     		ands	r2, r3
 429 005c FA23     		movs	r3, #250
 430 005e 9B00     		lsls	r3, r3, #2
 431 0060 1900     		movs	r1, r3
 432 0062 1000     		movs	r0, r2
 433 0064 FFF7FEFF 		bl	FRamInterface_I2CMasterWriteByte
 434 0068 0300     		movs	r3, r0
 435 006a FB60     		str	r3, [r7, #12]
 121:FRam.c        **** 	if(Result) return Result;
 436              		.loc 1 121 0
 437 006c FB68     		ldr	r3, [r7, #12]
 438 006e 002B     		cmp	r3, #0
 439 0070 01D0     		beq	.L21
 440              		.loc 1 121 0 is_stmt 0 discriminator 1
 441 0072 FB68     		ldr	r3, [r7, #12]
 442 0074 0DE0     		b	.L20
 443              	.L21:
 122:FRam.c        **** 	Result = FRamInterface_I2CMasterWriteByte((uint32)(LowerAddress &  0x000000ff),1000);
 444              		.loc 1 122 0 is_stmt 1
 445 0076 0A4B     		ldr	r3, .L22+4
 446 0078 1B88     		ldrh	r3, [r3]
ARM GAS  C:\Users\BENAKA~1\AppData\Local\Temp\cc21VN9u.s 			page 11


 447 007a 1A00     		movs	r2, r3
 448 007c FF23     		movs	r3, #255
 449 007e 1A40     		ands	r2, r3
 450 0080 FA23     		movs	r3, #250
 451 0082 9B00     		lsls	r3, r3, #2
 452 0084 1900     		movs	r1, r3
 453 0086 1000     		movs	r0, r2
 454 0088 FFF7FEFF 		bl	FRamInterface_I2CMasterWriteByte
 455 008c 0300     		movs	r3, r0
 456 008e FB60     		str	r3, [r7, #12]
 123:FRam.c        **** 	return Result;
 457              		.loc 1 123 0
 458 0090 FB68     		ldr	r3, [r7, #12]
 459              	.L20:
 124:FRam.c        **** }
 460              		.loc 1 124 0
 461 0092 1800     		movs	r0, r3
 462 0094 BD46     		mov	sp, r7
 463 0096 04B0     		add	sp, sp, #16
 464              		@ sp needed
 465 0098 80BD     		pop	{r7, pc}
 466              	.L23:
 467 009a C046     		.align	2
 468              	.L22:
 469 009c 02000000 		.word	I2CAddress
 470 00a0 00000000 		.word	LowerAddress
 471              		.cfi_endproc
 472              	.LFE40:
 473              		.size	SetFramAddress, .-SetFramAddress
 474              		.text
 475              	.Letext0:
 476              		.file 2 "Generated_Source\\PSoC4/cytypes.h"
 477              		.file 3 "Generated_Source\\PSoC4/BLE_Stack.h"
 478              		.file 4 "Generated_Source\\PSoC4/BLE_eventHandler.h"