ARM GAS  C:\Users\BENAKA~1\AppData\Local\Temp\ccXKiYai.s 			page 1


   1              		.syntax unified
   2              		.cpu cortex-m0
   3              		.fpu softvfp
   4              		.eabi_attribute 20, 1
   5              		.eabi_attribute 21, 1
   6              		.eabi_attribute 23, 3
   7              		.eabi_attribute 24, 1
   8              		.eabi_attribute 25, 1
   9              		.eabi_attribute 26, 1
  10              		.eabi_attribute 30, 6
  11              		.eabi_attribute 34, 0
  12              		.eabi_attribute 18, 4
  13              		.thumb
  14              		.syntax unified
  15              		.file	"fram_logging.c"
  16              		.text
  17              	.Ltext0:
  18              		.cfi_sections	.debug_frame
  19              		.comm	addr,4,4
  20              		.section	.text.WriteFRAMData,"ax",%progbits
  21              		.align	2
  22              		.global	WriteFRAMData
  23              		.code	16
  24              		.thumb_func
  25              		.type	WriteFRAMData, %function
  26              	WriteFRAMData:
  27              	.LFB36:
  28              		.file 1 "fram_logging.c"
   1:fram_logging.c **** /* ========================================
   2:fram_logging.c ****  *
   3:fram_logging.c ****  * Copyright YOUR COMPANY, THE YEAR
   4:fram_logging.c ****  * All Rights Reserved
   5:fram_logging.c ****  * UNPUBLISHED, LICENSED SOFTWARE.
   6:fram_logging.c ****  *
   7:fram_logging.c ****  * CONFIDENTIAL AND PROPRIETARY INFORMATION
   8:fram_logging.c ****  * WHICH IS THE PROPERTY OF your company.
   9:fram_logging.c ****  *
  10:fram_logging.c ****  * ========================================
  11:fram_logging.c **** */
  12:fram_logging.c **** #include <project.h>
  13:fram_logging.c **** #include "common.h"
  14:fram_logging.c **** #include "fram_logging.h"
  15:fram_logging.c **** 
  16:fram_logging.c **** /* Attribute CY_NOINIT puts SRAM variable in memory section which is retained in low power modes */
  17:fram_logging.c **** uint32 addr;
  18:fram_logging.c **** 
  19:fram_logging.c **** uint8 WriteFRAMData(uint16 addr_buf, uint8* write_buf, uint16 len)
  20:fram_logging.c **** {
  29              		.loc 1 20 0
  30              		.cfi_startproc
  31              		@ args = 0, pretend = 0, frame = 48
  32              		@ frame_needed = 1, uses_anonymous_args = 0
  33 0000 F0B5     		push	{r4, r5, r6, r7, lr}
  34              		.cfi_def_cfa_offset 20
  35              		.cfi_offset 4, -20
  36              		.cfi_offset 5, -16
  37              		.cfi_offset 6, -12
ARM GAS  C:\Users\BENAKA~1\AppData\Local\Temp\ccXKiYai.s 			page 2


  38              		.cfi_offset 7, -8
  39              		.cfi_offset 14, -4
  40 0002 8DB0     		sub	sp, sp, #52
  41              		.cfi_def_cfa_offset 72
  42 0004 00AF     		add	r7, sp, #0
  43              		.cfi_def_cfa_register 7
  44 0006 7860     		str	r0, [r7, #4]
  45 0008 B961     		str	r1, [r7, #24]
  46 000a 1000     		movs	r0, r2
  47 000c 1E22     		movs	r2, #30
  48 000e BA18     		adds	r2, r7, r2
  49 0010 B988     		ldrh	r1, [r7, #4]
  50 0012 1180     		strh	r1, [r2]
  51 0014 1C22     		movs	r2, #28
  52 0016 BA18     		adds	r2, r7, r2
  53 0018 011C     		adds	r1, r0, #0
  54 001a 1180     		strh	r1, [r2]
  55              		.loc 1 20 0
  56 001c 6A46     		mov	r2, sp
  57 001e 7A60     		str	r2, [r7, #4]
  21:fram_logging.c **** 	uint8 err;
  22:fram_logging.c **** 	uint8 temp_buf[len+ADDR_SIZE];
  58              		.loc 1 22 0
  59 0020 1C22     		movs	r2, #28
  60 0022 BA18     		adds	r2, r7, r2
  61 0024 1288     		ldrh	r2, [r2]
  62 0026 0432     		adds	r2, r2, #4
  63 0028 511E     		subs	r1, r2, #1
  64 002a F962     		str	r1, [r7, #44]
  65 002c 1100     		movs	r1, r2
  66 002e 3961     		str	r1, [r7, #16]
  67 0030 0021     		movs	r1, #0
  68 0032 7961     		str	r1, [r7, #20]
  69 0034 3969     		ldr	r1, [r7, #16]
  70 0036 490F     		lsrs	r1, r1, #29
  71 0038 7869     		ldr	r0, [r7, #20]
  72 003a C600     		lsls	r6, r0, #3
  73 003c 0E43     		orrs	r6, r1
  74 003e 3969     		ldr	r1, [r7, #16]
  75 0040 CD00     		lsls	r5, r1, #3
  76 0042 1100     		movs	r1, r2
  77 0044 B960     		str	r1, [r7, #8]
  78 0046 0021     		movs	r1, #0
  79 0048 F960     		str	r1, [r7, #12]
  80 004a BD68     		ldr	r5, [r7, #8]
  81 004c FE68     		ldr	r6, [r7, #12]
  82 004e 2900     		movs	r1, r5
  83 0050 490F     		lsrs	r1, r1, #29
  84 0052 3000     		movs	r0, r6
  85 0054 C400     		lsls	r4, r0, #3
  86 0056 0C43     		orrs	r4, r1
  87 0058 2900     		movs	r1, r5
  88 005a CB00     		lsls	r3, r1, #3
  89 005c 1300     		movs	r3, r2
  90 005e 0733     		adds	r3, r3, #7
  91 0060 DB08     		lsrs	r3, r3, #3
  92 0062 DB00     		lsls	r3, r3, #3
ARM GAS  C:\Users\BENAKA~1\AppData\Local\Temp\ccXKiYai.s 			page 3


  93 0064 6A46     		mov	r2, sp
  94 0066 D31A     		subs	r3, r2, r3
  95 0068 9D46     		mov	sp, r3
  96 006a 6B46     		mov	r3, sp
  97 006c 0033     		adds	r3, r3, #0
  98 006e BB62     		str	r3, [r7, #40]
  23:fram_logging.c **** 	
  24:fram_logging.c **** 	temp_buf[0] = (addr_buf & 0x000000ff);
  99              		.loc 1 24 0
 100 0070 1E23     		movs	r3, #30
 101 0072 FB18     		adds	r3, r7, r3
 102 0074 1B88     		ldrh	r3, [r3]
 103 0076 DAB2     		uxtb	r2, r3
 104 0078 BB6A     		ldr	r3, [r7, #40]
 105 007a 1A70     		strb	r2, [r3]
  25:fram_logging.c **** 	temp_buf[1] = ((addr_buf >> 8) & 0x000000ff);
 106              		.loc 1 25 0
 107 007c 1E23     		movs	r3, #30
 108 007e FB18     		adds	r3, r7, r3
 109 0080 1B88     		ldrh	r3, [r3]
 110 0082 1B0A     		lsrs	r3, r3, #8
 111 0084 9BB2     		uxth	r3, r3
 112 0086 DAB2     		uxtb	r2, r3
 113 0088 BB6A     		ldr	r3, [r7, #40]
 114 008a 5A70     		strb	r2, [r3, #1]
  26:fram_logging.c ****     temp_buf[2] = ((addr_buf >> 16) & 0x000000ff);
 115              		.loc 1 26 0
 116 008c BB6A     		ldr	r3, [r7, #40]
 117 008e 0022     		movs	r2, #0
 118 0090 9A70     		strb	r2, [r3, #2]
  27:fram_logging.c ****     temp_buf[3] = ((addr_buf >> 24) & 0x000000ff);
 119              		.loc 1 27 0
 120 0092 BB6A     		ldr	r3, [r7, #40]
 121 0094 0022     		movs	r2, #0
 122 0096 DA70     		strb	r2, [r3, #3]
  28:fram_logging.c ****     
  29:fram_logging.c **** 	memcpy(&temp_buf[4], write_buf, len);
 123              		.loc 1 29 0
 124 0098 BB6A     		ldr	r3, [r7, #40]
 125 009a 181D     		adds	r0, r3, #4
 126 009c 1C23     		movs	r3, #28
 127 009e FB18     		adds	r3, r7, r3
 128 00a0 1A88     		ldrh	r2, [r3]
 129 00a2 BB69     		ldr	r3, [r7, #24]
 130 00a4 1900     		movs	r1, r3
 131 00a6 FFF7FEFF 		bl	memcpy
  30:fram_logging.c **** 	
  31:fram_logging.c **** 	err = I2C_M_I2CMasterWriteBuf(FRAM_SLAVE_ADDR, temp_buf, len+ADDR_SIZE, I2C_M_I2C_MODE_COMPLETE_XF
 132              		.loc 1 31 0
 133 00aa B96A     		ldr	r1, [r7, #40]
 134 00ac 1C23     		movs	r3, #28
 135 00ae FB18     		adds	r3, r7, r3
 136 00b0 1B88     		ldrh	r3, [r3]
 137 00b2 0433     		adds	r3, r3, #4
 138 00b4 1A00     		movs	r2, r3
 139 00b6 0023     		movs	r3, #0
 140 00b8 5020     		movs	r0, #80
ARM GAS  C:\Users\BENAKA~1\AppData\Local\Temp\ccXKiYai.s 			page 4


 141 00ba FFF7FEFF 		bl	I2C_M_I2CMasterWriteBuf
 142 00be 0200     		movs	r2, r0
 143 00c0 0F23     		movs	r3, #15
 144 00c2 1821     		movs	r1, #24
 145 00c4 8C46     		mov	ip, r1
 146 00c6 BC44     		add	ip, ip, r7
 147 00c8 6344     		add	r3, r3, ip
 148 00ca 1A70     		strb	r2, [r3]
  32:fram_logging.c **** 	
  33:fram_logging.c **** 	while(0u == (I2C_M_I2CMasterStatus() & I2C_M_I2C_MSTAT_WR_CMPLT))
 149              		.loc 1 33 0
 150 00cc C046     		nop
 151              	.L2:
 152              		.loc 1 33 0 is_stmt 0 discriminator 1
 153 00ce FFF7FEFF 		bl	I2C_M_I2CMasterStatus
 154 00d2 0200     		movs	r2, r0
 155 00d4 0223     		movs	r3, #2
 156 00d6 1340     		ands	r3, r2
 157 00d8 F9D0     		beq	.L2
  34:fram_logging.c **** 	{
  35:fram_logging.c **** 	/* Wait until master complete write */
  36:fram_logging.c **** 	}
  37:fram_logging.c **** 	/* Clear I2C master status */
  38:fram_logging.c **** 	(void) I2C_M_I2CMasterClearStatus();
 158              		.loc 1 38 0 is_stmt 1
 159 00da FFF7FEFF 		bl	I2C_M_I2CMasterClearStatus
  39:fram_logging.c **** 	
  40:fram_logging.c **** 	return(err);
 160              		.loc 1 40 0
 161 00de 0F23     		movs	r3, #15
 162 00e0 1822     		movs	r2, #24
 163 00e2 9446     		mov	ip, r2
 164 00e4 BC44     		add	ip, ip, r7
 165 00e6 6344     		add	r3, r3, ip
 166 00e8 1B78     		ldrb	r3, [r3]
 167 00ea 7A68     		ldr	r2, [r7, #4]
 168 00ec 9546     		mov	sp, r2
  41:fram_logging.c **** }
 169              		.loc 1 41 0
 170 00ee 1800     		movs	r0, r3
 171 00f0 BD46     		mov	sp, r7
 172 00f2 0DB0     		add	sp, sp, #52
 173              		@ sp needed
 174 00f4 F0BD     		pop	{r4, r5, r6, r7, pc}
 175              		.cfi_endproc
 176              	.LFE36:
 177              		.size	WriteFRAMData, .-WriteFRAMData
 178 00f6 C046     		.section	.text.ReadFRAMData,"ax",%progbits
 179              		.align	2
 180              		.global	ReadFRAMData
 181              		.code	16
 182              		.thumb_func
 183              		.type	ReadFRAMData, %function
 184              	ReadFRAMData:
 185              	.LFB37:
  42:fram_logging.c **** 
  43:fram_logging.c **** uint8 ReadFRAMData(uint16 addr_buf, uint8* read_buf, uint16 len)
ARM GAS  C:\Users\BENAKA~1\AppData\Local\Temp\ccXKiYai.s 			page 5


  44:fram_logging.c **** {
 186              		.loc 1 44 0
 187              		.cfi_startproc
 188              		@ args = 0, pretend = 0, frame = 16
 189              		@ frame_needed = 1, uses_anonymous_args = 0
 190 0000 80B5     		push	{r7, lr}
 191              		.cfi_def_cfa_offset 8
 192              		.cfi_offset 7, -8
 193              		.cfi_offset 14, -4
 194 0002 84B0     		sub	sp, sp, #16
 195              		.cfi_def_cfa_offset 24
 196 0004 00AF     		add	r7, sp, #0
 197              		.cfi_def_cfa_register 7
 198 0006 3960     		str	r1, [r7]
 199 0008 1100     		movs	r1, r2
 200 000a BB1D     		adds	r3, r7, #6
 201 000c 021C     		adds	r2, r0, #0
 202 000e 1A80     		strh	r2, [r3]
 203 0010 3B1D     		adds	r3, r7, #4
 204 0012 0A1C     		adds	r2, r1, #0
 205 0014 1A80     		strh	r2, [r3]
  45:fram_logging.c **** 	uint8 err;
  46:fram_logging.c **** 
  47:fram_logging.c ****     
  48:fram_logging.c **** 	err = I2C_M_I2CMasterWriteBuf(FRAM_SLAVE_ADDR, (uint8 *)&addr_buf, ADDR_SIZE, I2C_M_I2C_MODE_COMPL
 206              		.loc 1 48 0
 207 0016 B91D     		adds	r1, r7, #6
 208 0018 0023     		movs	r3, #0
 209 001a 0422     		movs	r2, #4
 210 001c 5020     		movs	r0, #80
 211 001e FFF7FEFF 		bl	I2C_M_I2CMasterWriteBuf
 212 0022 0200     		movs	r2, r0
 213 0024 0F23     		movs	r3, #15
 214 0026 FB18     		adds	r3, r7, r3
 215 0028 1A70     		strb	r2, [r3]
  49:fram_logging.c **** 	
  50:fram_logging.c **** 	while(0u == (I2C_M_I2CMasterStatus() & I2C_M_I2C_MSTAT_WR_CMPLT))
 216              		.loc 1 50 0
 217 002a C046     		nop
 218              	.L5:
 219              		.loc 1 50 0 is_stmt 0 discriminator 1
 220 002c FFF7FEFF 		bl	I2C_M_I2CMasterStatus
 221 0030 0200     		movs	r2, r0
 222 0032 0223     		movs	r3, #2
 223 0034 1340     		ands	r3, r2
 224 0036 F9D0     		beq	.L5
  51:fram_logging.c **** 	{
  52:fram_logging.c **** 	/* Wait until master complete write */
  53:fram_logging.c **** 	}
  54:fram_logging.c **** 	/* Clear I2C master status */
  55:fram_logging.c **** 	(void) I2C_M_I2CMasterClearStatus();
 225              		.loc 1 55 0 is_stmt 1
 226 0038 FFF7FEFF 		bl	I2C_M_I2CMasterClearStatus
  56:fram_logging.c **** 	
  57:fram_logging.c **** 	err = I2C_M_I2CMasterReadBuf(FRAM_SLAVE_ADDR, &read_buf[0], len, I2C_M_I2C_MODE_COMPLETE_XFER);
 227              		.loc 1 57 0
 228 003c 3B1D     		adds	r3, r7, #4
ARM GAS  C:\Users\BENAKA~1\AppData\Local\Temp\ccXKiYai.s 			page 6


 229 003e 1A88     		ldrh	r2, [r3]
 230 0040 3968     		ldr	r1, [r7]
 231 0042 0023     		movs	r3, #0
 232 0044 5020     		movs	r0, #80
 233 0046 FFF7FEFF 		bl	I2C_M_I2CMasterReadBuf
 234 004a 0200     		movs	r2, r0
 235 004c 0F23     		movs	r3, #15
 236 004e FB18     		adds	r3, r7, r3
 237 0050 1A70     		strb	r2, [r3]
  58:fram_logging.c **** 				
  59:fram_logging.c **** 	while(0u == (I2C_M_I2CMasterStatus() & I2C_M_I2C_MSTAT_RD_CMPLT))
 238              		.loc 1 59 0
 239 0052 C046     		nop
 240              	.L6:
 241              		.loc 1 59 0 is_stmt 0 discriminator 1
 242 0054 FFF7FEFF 		bl	I2C_M_I2CMasterStatus
 243 0058 0200     		movs	r2, r0
 244 005a 0123     		movs	r3, #1
 245 005c 1340     		ands	r3, r2
 246 005e F9D0     		beq	.L6
  60:fram_logging.c **** 	{
  61:fram_logging.c **** 	/* Wait until master complete reading */
  62:fram_logging.c **** 	}
  63:fram_logging.c **** 	
  64:fram_logging.c **** 	/* Clear I2C master status */
  65:fram_logging.c **** 	(void) I2C_M_I2CMasterClearStatus();
 247              		.loc 1 65 0 is_stmt 1
 248 0060 FFF7FEFF 		bl	I2C_M_I2CMasterClearStatus
  66:fram_logging.c **** 	
  67:fram_logging.c **** 	return(err);
 249              		.loc 1 67 0
 250 0064 0F23     		movs	r3, #15
 251 0066 FB18     		adds	r3, r7, r3
 252 0068 1B78     		ldrb	r3, [r3]
  68:fram_logging.c **** }
 253              		.loc 1 68 0
 254 006a 1800     		movs	r0, r3
 255 006c BD46     		mov	sp, r7
 256 006e 04B0     		add	sp, sp, #16
 257              		@ sp needed
 258 0070 80BD     		pop	{r7, pc}
 259              		.cfi_endproc
 260              	.LFE37:
 261              		.size	ReadFRAMData, .-ReadFRAMData
 262 0072 C046     		.section	.rodata
 263              		.align	2
 264              	.LC1:
 265 0000 44617461 		.ascii	"Data logged successfully \015\000"
 265      206C6F67 
 265      67656420 
 265      73756363 
 265      65737366 
 266 001b 00       		.align	2
 267              	.LC3:
 268 001c 44617461 		.ascii	"Data read back: \000"
 268      20726561 
 268      64206261 
ARM GAS  C:\Users\BENAKA~1\AppData\Local\Temp\ccXKiYai.s 			page 7


 268      636B3A20 
 268      00
 269 002d 000000   		.align	2
 270              	.LC5:
 271 0030 2000     		.ascii	" \000"
 272 0032 0000     		.align	2
 273              	.LC7:
 274 0034 0D0A00   		.ascii	"\015\012\000"
 275 0037 00       		.align	2
 276              	.LC9:
 277 0038 41646472 		.ascii	"Address reset\015\000"
 277      65737320 
 277      72657365 
 277      740D00
 278 0047 00       		.align	2
 279              	.LC11:
 280 0048 4D656D6F 		.ascii	"Memory full. Press r or R to reset the memory.\015\000"
 280      72792066 
 280      756C6C2E 
 280      20507265 
 280      73732072 
 281              		.section	.text.DataLogging,"ax",%progbits
 282              		.align	2
 283              		.global	DataLogging
 284              		.code	16
 285              		.thumb_func
 286              		.type	DataLogging, %function
 287              	DataLogging:
 288              	.LFB38:
  69:fram_logging.c **** 
  70:fram_logging.c **** void DataLogging(uint8 len, uint8* data_buf)
  71:fram_logging.c **** {
 289              		.loc 1 71 0
 290              		.cfi_startproc
 291              		@ args = 0, pretend = 0, frame = 32
 292              		@ frame_needed = 1, uses_anonymous_args = 0
 293 0000 80B5     		push	{r7, lr}
 294              		.cfi_def_cfa_offset 8
 295              		.cfi_offset 7, -8
 296              		.cfi_offset 14, -4
 297 0002 88B0     		sub	sp, sp, #32
 298              		.cfi_def_cfa_offset 40
 299 0004 00AF     		add	r7, sp, #0
 300              		.cfi_def_cfa_register 7
 301 0006 0200     		movs	r2, r0
 302 0008 3960     		str	r1, [r7]
 303 000a FB1D     		adds	r3, r7, #7
 304 000c 1A70     		strb	r2, [r3]
  72:fram_logging.c ****     uint8 read_buf[20];
  73:fram_logging.c ****     uint8 temp;
  74:fram_logging.c ****     uint16 temp1;
  75:fram_logging.c ****     
  76:fram_logging.c ****     if((addr + len) < FRAM_SIZE)
 305              		.loc 1 76 0
 306 000e FB1D     		adds	r3, r7, #7
 307 0010 1A78     		ldrb	r2, [r3]
 308 0012 374B     		ldr	r3, .L16
ARM GAS  C:\Users\BENAKA~1\AppData\Local\Temp\ccXKiYai.s 			page 8


 309 0014 1B68     		ldr	r3, [r3]
 310 0016 D318     		adds	r3, r2, r3
 311 0018 364A     		ldr	r2, .L16+4
 312 001a 9342     		cmp	r3, r2
 313 001c 48D8     		bhi	.L9
  77:fram_logging.c ****     {
  78:fram_logging.c ****         addr = addr + len;
 314              		.loc 1 78 0
 315 001e FB1D     		adds	r3, r7, #7
 316 0020 1A78     		ldrb	r2, [r3]
 317 0022 334B     		ldr	r3, .L16
 318 0024 1B68     		ldr	r3, [r3]
 319 0026 D218     		adds	r2, r2, r3
 320 0028 314B     		ldr	r3, .L16
 321 002a 1A60     		str	r2, [r3]
  79:fram_logging.c ****         WriteFRAMData(addr, data_buf, len);
 322              		.loc 1 79 0
 323 002c 304B     		ldr	r3, .L16
 324 002e 1B68     		ldr	r3, [r3]
 325 0030 98B2     		uxth	r0, r3
 326 0032 FB1D     		adds	r3, r7, #7
 327 0034 1B78     		ldrb	r3, [r3]
 328 0036 9AB2     		uxth	r2, r3
 329 0038 3B68     		ldr	r3, [r7]
 330 003a 1900     		movs	r1, r3
 331 003c FFF7FEFF 		bl	WriteFRAMData
  80:fram_logging.c ****         printf("Data logged successfully \r\n");
 332              		.loc 1 80 0
 333 0040 2D4B     		ldr	r3, .L16+8
 334 0042 1800     		movs	r0, r3
 335 0044 FFF7FEFF 		bl	puts
  81:fram_logging.c **** 	    ReadFRAMData(addr, read_buf, len);
 336              		.loc 1 81 0
 337 0048 294B     		ldr	r3, .L16
 338 004a 1B68     		ldr	r3, [r3]
 339 004c 98B2     		uxth	r0, r3
 340 004e FB1D     		adds	r3, r7, #7
 341 0050 1B78     		ldrb	r3, [r3]
 342 0052 9AB2     		uxth	r2, r3
 343 0054 0823     		movs	r3, #8
 344 0056 FB18     		adds	r3, r7, r3
 345 0058 1900     		movs	r1, r3
 346 005a FFF7FEFF 		bl	ReadFRAMData
  82:fram_logging.c **** 	    printf("Data read back: ");
 347              		.loc 1 82 0
 348 005e 274B     		ldr	r3, .L16+12
 349 0060 1800     		movs	r0, r3
 350 0062 FFF7FEFF 		bl	printf
  83:fram_logging.c ****         for(temp=0; temp<len; temp++)
 351              		.loc 1 83 0
 352 0066 1F23     		movs	r3, #31
 353 0068 FB18     		adds	r3, r7, r3
 354 006a 0022     		movs	r2, #0
 355 006c 1A70     		strb	r2, [r3]
 356 006e 13E0     		b	.L10
 357              	.L11:
  84:fram_logging.c ****         {
ARM GAS  C:\Users\BENAKA~1\AppData\Local\Temp\ccXKiYai.s 			page 9


  85:fram_logging.c **** 	        PrintHex(read_buf[temp]);
 358              		.loc 1 85 0 discriminator 3
 359 0070 1F23     		movs	r3, #31
 360 0072 FB18     		adds	r3, r7, r3
 361 0074 1B78     		ldrb	r3, [r3]
 362 0076 0822     		movs	r2, #8
 363 0078 BA18     		adds	r2, r7, r2
 364 007a D35C     		ldrb	r3, [r2, r3]
 365 007c 1800     		movs	r0, r3
 366 007e FFF7FEFF 		bl	PrintHex
  86:fram_logging.c **** 	        UART_UartPutString(" ");
 367              		.loc 1 86 0 discriminator 3
 368 0082 1F4B     		ldr	r3, .L16+16
 369 0084 1800     		movs	r0, r3
 370 0086 FFF7FEFF 		bl	UART_UartPutString
  83:fram_logging.c ****         for(temp=0; temp<len; temp++)
 371              		.loc 1 83 0 discriminator 3
 372 008a 1F23     		movs	r3, #31
 373 008c FB18     		adds	r3, r7, r3
 374 008e 1A78     		ldrb	r2, [r3]
 375 0090 1F23     		movs	r3, #31
 376 0092 FB18     		adds	r3, r7, r3
 377 0094 0132     		adds	r2, r2, #1
 378 0096 1A70     		strb	r2, [r3]
 379              	.L10:
  83:fram_logging.c ****         for(temp=0; temp<len; temp++)
 380              		.loc 1 83 0 is_stmt 0 discriminator 1
 381 0098 1F23     		movs	r3, #31
 382 009a FA18     		adds	r2, r7, r3
 383 009c FB1D     		adds	r3, r7, #7
 384 009e 1278     		ldrb	r2, [r2]
 385 00a0 1B78     		ldrb	r3, [r3]
 386 00a2 9A42     		cmp	r2, r3
 387 00a4 E4D3     		bcc	.L11
  87:fram_logging.c ****         }
  88:fram_logging.c ****         UART_UartPutString("\r\n");
 388              		.loc 1 88 0 is_stmt 1
 389 00a6 174B     		ldr	r3, .L16+20
 390 00a8 1800     		movs	r0, r3
 391 00aa FFF7FEFF 		bl	UART_UartPutString
  89:fram_logging.c ****     }
  90:fram_logging.c ****     else
  91:fram_logging.c ****     {
  92:fram_logging.c ****         temp = (uint8)UART_UartGetChar();
  93:fram_logging.c ****         if(temp == 'r' || temp == 'R')
  94:fram_logging.c ****         {
  95:fram_logging.c ****             printf("Address reset\r\n");
  96:fram_logging.c ****             addr = 0;
  97:fram_logging.c ****         }
  98:fram_logging.c ****         else
  99:fram_logging.c ****         {
 100:fram_logging.c ****             printf("Memory full. Press r or R to reset the memory.\r\n");
 101:fram_logging.c ****         }
 102:fram_logging.c ****     }
 103:fram_logging.c **** }
 392              		.loc 1 103 0
 393 00ae 1BE0     		b	.L15
ARM GAS  C:\Users\BENAKA~1\AppData\Local\Temp\ccXKiYai.s 			page 10


 394              	.L9:
  92:fram_logging.c ****         if(temp == 'r' || temp == 'R')
 395              		.loc 1 92 0
 396 00b0 FFF7FEFF 		bl	UART_UartGetChar
 397 00b4 0200     		movs	r2, r0
 398 00b6 1F23     		movs	r3, #31
 399 00b8 FB18     		adds	r3, r7, r3
 400 00ba 1A70     		strb	r2, [r3]
  93:fram_logging.c ****         {
 401              		.loc 1 93 0
 402 00bc 1F23     		movs	r3, #31
 403 00be FB18     		adds	r3, r7, r3
 404 00c0 1B78     		ldrb	r3, [r3]
 405 00c2 722B     		cmp	r3, #114
 406 00c4 04D0     		beq	.L13
  93:fram_logging.c ****         {
 407              		.loc 1 93 0 is_stmt 0 discriminator 1
 408 00c6 1F23     		movs	r3, #31
 409 00c8 FB18     		adds	r3, r7, r3
 410 00ca 1B78     		ldrb	r3, [r3]
 411 00cc 522B     		cmp	r3, #82
 412 00ce 07D1     		bne	.L14
 413              	.L13:
  95:fram_logging.c ****             addr = 0;
 414              		.loc 1 95 0 is_stmt 1
 415 00d0 0D4B     		ldr	r3, .L16+24
 416 00d2 1800     		movs	r0, r3
 417 00d4 FFF7FEFF 		bl	puts
  96:fram_logging.c ****         }
 418              		.loc 1 96 0
 419 00d8 054B     		ldr	r3, .L16
 420 00da 0022     		movs	r2, #0
 421 00dc 1A60     		str	r2, [r3]
 422              		.loc 1 103 0
 423 00de 03E0     		b	.L15
 424              	.L14:
 100:fram_logging.c ****         }
 425              		.loc 1 100 0
 426 00e0 0A4B     		ldr	r3, .L16+28
 427 00e2 1800     		movs	r0, r3
 428 00e4 FFF7FEFF 		bl	puts
 429              	.L15:
 430              		.loc 1 103 0
 431 00e8 C046     		nop
 432 00ea BD46     		mov	sp, r7
 433 00ec 08B0     		add	sp, sp, #32
 434              		@ sp needed
 435 00ee 80BD     		pop	{r7, pc}
 436              	.L17:
 437              		.align	2
 438              	.L16:
 439 00f0 00000000 		.word	addr
 440 00f4 FFFF0100 		.word	131071
 441 00f8 00000000 		.word	.LC1
 442 00fc 1C000000 		.word	.LC3
 443 0100 30000000 		.word	.LC5
 444 0104 34000000 		.word	.LC7
ARM GAS  C:\Users\BENAKA~1\AppData\Local\Temp\ccXKiYai.s 			page 11


 445 0108 38000000 		.word	.LC9
 446 010c 48000000 		.word	.LC11
 447              		.cfi_endproc
 448              	.LFE38:
 449              		.size	DataLogging, .-DataLogging
 450              		.text
 451              	.Letext0:
 452              		.file 2 "Generated_Source\\PSoC4/cytypes.h"
 453              		.file 3 "Generated_Source\\PSoC4/BLE_Stack.h"
 454              		.file 4 "Generated_Source\\PSoC4/BLE_eventHandler.h"