ARM GAS  C:\Users\BENAKA~1\AppData\Local\Temp\ccK18q1x.s 			page 1


   1              		.syntax unified
   2              		.cpu cortex-m0
   3              		.fpu softvfp
   4              		.eabi_attribute 20, 1
   5              		.eabi_attribute 21, 1
   6              		.eabi_attribute 23, 3
   7              		.eabi_attribute 24, 1
   8              		.eabi_attribute 25, 1
   9              		.eabi_attribute 26, 1
  10              		.eabi_attribute 30, 6
  11              		.eabi_attribute 34, 0
  12              		.eabi_attribute 18, 4
  13              		.thumb
  14              		.syntax unified
  15              		.file	"app_UART.c"
  16              		.text
  17              	.Ltext0:
  18              		.cfi_sections	.debug_frame
  19              		.section	.text.HandleUartTxTraffic,"ax",%progbits
  20              		.align	2
  21              		.global	HandleUartTxTraffic
  22              		.code	16
  23              		.thumb_func
  24              		.type	HandleUartTxTraffic, %function
  25              	HandleUartTxTraffic:
  26              	.LFB35:
  27              		.file 1 "app_UART.c"
   1:app_UART.c    **** /*****************************************************************************************
   2:app_UART.c    **** * File Name: app_UART.c
   3:app_UART.c    **** *
   4:app_UART.c    **** * Description:
   5:app_UART.c    **** *  Common BLE application code for client devices.
   6:app_UART.c    **** *
   7:app_UART.c    **** *****************************************************************************************
   8:app_UART.c    **** * Copyright 2015, Cypress Semiconductor Corporation.  All rights reserved.
   9:app_UART.c    **** * You may use this file only in accordance with the license, terms, conditions,
  10:app_UART.c    **** * disclaimers, and limitations in the end user license agreement accompanying
  11:app_UART.c    **** * the software package with which this file was provided.
  12:app_UART.c    **** *****************************************************************************************/
  13:app_UART.c    **** 
  14:app_UART.c    **** #include "app_UART.h"
  15:app_UART.c    **** #include "app_Ble.h"
  16:app_UART.c    **** 
  17:app_UART.c    **** 
  18:app_UART.c    **** /*****************************************************************************************
  19:app_UART.c    **** * Function Name: HandleUartTxTraffic
  20:app_UART.c    **** ******************************************************************************************
  21:app_UART.c    **** *
  22:app_UART.c    **** * Summary:
  23:app_UART.c    **** *  This function takes data from UART RX buffer and pushes it to the server 
  24:app_UART.c    **** *  as Notifications.
  25:app_UART.c    **** *
  26:app_UART.c    **** * Parameters:
  27:app_UART.c    **** *  uint16 - CCCD for checking if notifications are enabled  
  28:app_UART.c    **** *
  29:app_UART.c    **** * Return:
  30:app_UART.c    **** *   None.
ARM GAS  C:\Users\BENAKA~1\AppData\Local\Temp\ccK18q1x.s 			page 2


  31:app_UART.c    **** *
  32:app_UART.c    **** *****************************************************************************************/
  33:app_UART.c    **** void HandleUartTxTraffic(uint16 txDataClientConfigDesc)
  34:app_UART.c    **** {
  28              		.loc 1 34 0
  29              		.cfi_startproc
  30              		@ args = 0, pretend = 0, frame = 56
  31              		@ frame_needed = 1, uses_anonymous_args = 0
  32 0000 F0B5     		push	{r4, r5, r6, r7, lr}
  33              		.cfi_def_cfa_offset 20
  34              		.cfi_offset 4, -20
  35              		.cfi_offset 5, -16
  36              		.cfi_offset 6, -12
  37              		.cfi_offset 7, -8
  38              		.cfi_offset 14, -4
  39 0002 8FB0     		sub	sp, sp, #60
  40              		.cfi_def_cfa_offset 80
  41 0004 00AF     		add	r7, sp, #0
  42              		.cfi_def_cfa_register 7
  43 0006 0300     		movs	r3, r0
  44 0008 1620     		movs	r0, #22
  45 000a 3818     		adds	r0, r7, r0
  46 000c 9C46     		mov	ip, r3
  47 000e 6346     		mov	r3, ip
  48 0010 0380     		strh	r3, [r0]
  49              		.loc 1 34 0
  50 0012 6846     		mov	r0, sp
  51 0014 3861     		str	r0, [r7, #16]
  35:app_UART.c    ****     uint8   index;
  36:app_UART.c    ****     uint8   uartTxData[mtuSize - 3];
  52              		.loc 1 36 0
  53 0016 7748     		ldr	r0, .L8
  54 0018 0088     		ldrh	r0, [r0]
  55 001a 0338     		subs	r0, r0, #3
  56 001c 431E     		subs	r3, r0, #1
  57 001e 9C46     		mov	ip, r3
  58 0020 6346     		mov	r3, ip
  59 0022 3B63     		str	r3, [r7, #48]
  60 0024 0300     		movs	r3, r0
  61 0026 BB60     		str	r3, [r7, #8]
  62 0028 0023     		movs	r3, #0
  63 002a FB60     		str	r3, [r7, #12]
  64 002c BB68     		ldr	r3, [r7, #8]
  65 002e 5B0F     		lsrs	r3, r3, #29
  66 0030 9C46     		mov	ip, r3
  67 0032 FB68     		ldr	r3, [r7, #12]
  68 0034 DA00     		lsls	r2, r3, #3
  69 0036 6346     		mov	r3, ip
  70 0038 1A43     		orrs	r2, r3
  71 003a BB68     		ldr	r3, [r7, #8]
  72 003c D900     		lsls	r1, r3, #3
  73 003e 0200     		movs	r2, r0
  74 0040 1500     		movs	r5, r2
  75 0042 0022     		movs	r2, #0
  76 0044 1600     		movs	r6, r2
  77 0046 6A0F     		lsrs	r2, r5, #29
  78 0048 F300     		lsls	r3, r6, #3
ARM GAS  C:\Users\BENAKA~1\AppData\Local\Temp\ccK18q1x.s 			page 3


  79 004a 7B60     		str	r3, [r7, #4]
  80 004c 7B68     		ldr	r3, [r7, #4]
  81 004e 1343     		orrs	r3, r2
  82 0050 7B60     		str	r3, [r7, #4]
  83 0052 EB00     		lsls	r3, r5, #3
  84 0054 3B60     		str	r3, [r7]
  85 0056 0300     		movs	r3, r0
  86 0058 0733     		adds	r3, r3, #7
  87 005a DB08     		lsrs	r3, r3, #3
  88 005c DB00     		lsls	r3, r3, #3
  89 005e 6A46     		mov	r2, sp
  90 0060 D31A     		subs	r3, r2, r3
  91 0062 9D46     		mov	sp, r3
  92 0064 6B46     		mov	r3, sp
  93 0066 0033     		adds	r3, r3, #0
  94 0068 FB62     		str	r3, [r7, #44]
  37:app_UART.c    ****     uint16  uartTxDataLength;
  38:app_UART.c    ****     
  39:app_UART.c    ****     static uint16 uartIdleCount = UART_IDLE_TIMEOUT;
  40:app_UART.c    ****     
  41:app_UART.c    ****     CYBLE_API_RESULT_T                  bleApiResult;
  42:app_UART.c    ****     CYBLE_GATTS_HANDLE_VALUE_NTF_T      uartTxDataNtf;
  43:app_UART.c    ****     
  44:app_UART.c    ****     uartTxDataLength = UART_SpiUartGetRxBufferSize();
  95              		.loc 1 44 0
  96 006a FFF7FEFF 		bl	UART_SpiUartGetRxBufferSize
  97 006e 0200     		movs	r2, r0
  98 0070 2423     		movs	r3, #36
  99 0072 1021     		movs	r1, #16
 100 0074 8C46     		mov	ip, r1
 101 0076 BC44     		add	ip, ip, r7
 102 0078 6344     		add	r3, r3, ip
 103 007a 1A80     		strh	r2, [r3]
  45:app_UART.c    ****     
  46:app_UART.c    ****     #ifdef FLOW_CONTROL
  47:app_UART.c    ****         if(uartTxDataLength >= (UART_UART_RX_BUFFER_SIZE - (UART_UART_RX_BUFFER_SIZE/2)))
  48:app_UART.c    ****         {
  49:app_UART.c    ****             DisableUartRxInt();
  50:app_UART.c    ****         }
  51:app_UART.c    ****         else
  52:app_UART.c    ****         {
  53:app_UART.c    ****             EnableUartRxInt();
  54:app_UART.c    ****         }
  55:app_UART.c    ****     #endif
  56:app_UART.c    ****     
  57:app_UART.c    ****     if((0 != uartTxDataLength) && (NOTIFICATON_ENABLED == txDataClientConfigDesc))
 104              		.loc 1 57 0
 105 007c 2423     		movs	r3, #36
 106 007e 1022     		movs	r2, #16
 107 0080 9446     		mov	ip, r2
 108 0082 BC44     		add	ip, ip, r7
 109 0084 6344     		add	r3, r3, ip
 110 0086 1B88     		ldrh	r3, [r3]
 111 0088 002B     		cmp	r3, #0
 112 008a 00D1     		bne	.LCB87
 113 008c ABE0     		b	.L2	@long jump
 114              	.LCB87:
ARM GAS  C:\Users\BENAKA~1\AppData\Local\Temp\ccK18q1x.s 			page 4


 115              		.loc 1 57 0 is_stmt 0 discriminator 1
 116 008e 1623     		movs	r3, #22
 117 0090 FB18     		adds	r3, r7, r3
 118 0092 1B88     		ldrh	r3, [r3]
 119 0094 012B     		cmp	r3, #1
 120 0096 00D0     		beq	.LCB92
 121 0098 A5E0     		b	.L2	@long jump
 122              	.LCB92:
  58:app_UART.c    ****     {
  59:app_UART.c    ****         if(uartTxDataLength >= (mtuSize - 3))
 123              		.loc 1 59 0 is_stmt 1
 124 009a 2423     		movs	r3, #36
 125 009c 1022     		movs	r2, #16
 126 009e 9446     		mov	ip, r2
 127 00a0 BC44     		add	ip, ip, r7
 128 00a2 6344     		add	r3, r3, ip
 129 00a4 1A88     		ldrh	r2, [r3]
 130 00a6 534B     		ldr	r3, .L8
 131 00a8 1B88     		ldrh	r3, [r3]
 132 00aa 033B     		subs	r3, r3, #3
 133 00ac 9A42     		cmp	r2, r3
 134 00ae 0DDB     		blt	.L3
  60:app_UART.c    ****         {
  61:app_UART.c    ****             uartIdleCount       = UART_IDLE_TIMEOUT;
 135              		.loc 1 61 0
 136 00b0 514B     		ldr	r3, .L8+4
 137 00b2 FA22     		movs	r2, #250
 138 00b4 9200     		lsls	r2, r2, #2
 139 00b6 1A80     		strh	r2, [r3]
  62:app_UART.c    ****             uartTxDataLength    = mtuSize - 3;
 140              		.loc 1 62 0
 141 00b8 4E4B     		ldr	r3, .L8
 142 00ba 1A88     		ldrh	r2, [r3]
 143 00bc 2423     		movs	r3, #36
 144 00be 1021     		movs	r1, #16
 145 00c0 8C46     		mov	ip, r1
 146 00c2 BC44     		add	ip, ip, r7
 147 00c4 6344     		add	r3, r3, ip
 148 00c6 033A     		subs	r2, r2, #3
 149 00c8 1A80     		strh	r2, [r3]
 150 00ca 10E0     		b	.L4
 151              	.L3:
  63:app_UART.c    ****         }
  64:app_UART.c    ****         else
  65:app_UART.c    ****         {
  66:app_UART.c    ****             if(--uartIdleCount == 0)
 152              		.loc 1 66 0
 153 00cc 4A4B     		ldr	r3, .L8+4
 154 00ce 1B88     		ldrh	r3, [r3]
 155 00d0 013B     		subs	r3, r3, #1
 156 00d2 9AB2     		uxth	r2, r3
 157 00d4 484B     		ldr	r3, .L8+4
 158 00d6 1A80     		strh	r2, [r3]
 159 00d8 474B     		ldr	r3, .L8+4
 160 00da 1B88     		ldrh	r3, [r3]
 161 00dc 002B     		cmp	r3, #0
 162 00de 06D0     		beq	.L4
ARM GAS  C:\Users\BENAKA~1\AppData\Local\Temp\ccK18q1x.s 			page 5


  67:app_UART.c    ****             {
  68:app_UART.c    ****                 /*uartTxDataLength remains unchanged */;
  69:app_UART.c    ****             }
  70:app_UART.c    ****             else
  71:app_UART.c    ****             {
  72:app_UART.c    ****                 uartTxDataLength = 0;
 163              		.loc 1 72 0
 164 00e0 2423     		movs	r3, #36
 165 00e2 1022     		movs	r2, #16
 166 00e4 9446     		mov	ip, r2
 167 00e6 BC44     		add	ip, ip, r7
 168 00e8 6344     		add	r3, r3, ip
 169 00ea 0022     		movs	r2, #0
 170 00ec 1A80     		strh	r2, [r3]
 171              	.L4:
  73:app_UART.c    ****             }
  74:app_UART.c    ****         }
  75:app_UART.c    ****         
  76:app_UART.c    ****         if(0 != uartTxDataLength)
 172              		.loc 1 76 0
 173 00ee 2423     		movs	r3, #36
 174 00f0 1022     		movs	r2, #16
 175 00f2 9446     		mov	ip, r2
 176 00f4 BC44     		add	ip, ip, r7
 177 00f6 6344     		add	r3, r3, ip
 178 00f8 1B88     		ldrh	r3, [r3]
 179 00fa 002B     		cmp	r3, #0
 180 00fc 73D0     		beq	.L2
  77:app_UART.c    ****         {
  78:app_UART.c    ****             uartIdleCount       = UART_IDLE_TIMEOUT;
 181              		.loc 1 78 0
 182 00fe 3E4B     		ldr	r3, .L8+4
 183 0100 FA22     		movs	r2, #250
 184 0102 9200     		lsls	r2, r2, #2
 185 0104 1A80     		strh	r2, [r3]
  79:app_UART.c    ****             
  80:app_UART.c    ****             for(index = 0; index < uartTxDataLength; index++)
 186              		.loc 1 80 0
 187 0106 2723     		movs	r3, #39
 188 0108 1022     		movs	r2, #16
 189 010a 9446     		mov	ip, r2
 190 010c BC44     		add	ip, ip, r7
 191 010e 6344     		add	r3, r3, ip
 192 0110 0022     		movs	r2, #0
 193 0112 1A70     		strb	r2, [r3]
 194 0114 18E0     		b	.L5
 195              	.L6:
  81:app_UART.c    ****             {
  82:app_UART.c    ****                 uartTxData[index] = (uint8) UART_UartGetByte();
 196              		.loc 1 82 0 discriminator 3
 197 0116 2723     		movs	r3, #39
 198 0118 1022     		movs	r2, #16
 199 011a 9446     		mov	ip, r2
 200 011c BC44     		add	ip, ip, r7
 201 011e 6344     		add	r3, r3, ip
 202 0120 1C78     		ldrb	r4, [r3]
 203 0122 FFF7FEFF 		bl	UART_UartGetByte
ARM GAS  C:\Users\BENAKA~1\AppData\Local\Temp\ccK18q1x.s 			page 6


 204 0126 0300     		movs	r3, r0
 205 0128 DAB2     		uxtb	r2, r3
 206 012a FB6A     		ldr	r3, [r7, #44]
 207 012c 1A55     		strb	r2, [r3, r4]
  80:app_UART.c    ****             {
 208              		.loc 1 80 0 discriminator 3
 209 012e 2723     		movs	r3, #39
 210 0130 1022     		movs	r2, #16
 211 0132 9446     		mov	ip, r2
 212 0134 BC44     		add	ip, ip, r7
 213 0136 6344     		add	r3, r3, ip
 214 0138 1A78     		ldrb	r2, [r3]
 215 013a 2723     		movs	r3, #39
 216 013c 1021     		movs	r1, #16
 217 013e 8C46     		mov	ip, r1
 218 0140 BC44     		add	ip, ip, r7
 219 0142 6344     		add	r3, r3, ip
 220 0144 0132     		adds	r2, r2, #1
 221 0146 1A70     		strb	r2, [r3]
 222              	.L5:
  80:app_UART.c    ****             {
 223              		.loc 1 80 0 is_stmt 0 discriminator 1
 224 0148 2723     		movs	r3, #39
 225 014a 1022     		movs	r2, #16
 226 014c 9446     		mov	ip, r2
 227 014e BC44     		add	ip, ip, r7
 228 0150 6344     		add	r3, r3, ip
 229 0152 1B78     		ldrb	r3, [r3]
 230 0154 9BB2     		uxth	r3, r3
 231 0156 2422     		movs	r2, #36
 232 0158 1021     		movs	r1, #16
 233 015a 8C46     		mov	ip, r1
 234 015c BC44     		add	ip, ip, r7
 235 015e 6244     		add	r2, r2, ip
 236 0160 1288     		ldrh	r2, [r2]
 237 0162 9A42     		cmp	r2, r3
 238 0164 D7D8     		bhi	.L6
  83:app_UART.c    ****             }
  84:app_UART.c    ****             
  85:app_UART.c    ****             uartTxDataNtf.value.val  = uartTxData;
 239              		.loc 1 85 0 is_stmt 1
 240 0166 FA6A     		ldr	r2, [r7, #44]
 241 0168 0C23     		movs	r3, #12
 242 016a 1021     		movs	r1, #16
 243 016c 8C46     		mov	ip, r1
 244 016e BC44     		add	ip, ip, r7
 245 0170 6344     		add	r3, r3, ip
 246 0172 1A60     		str	r2, [r3]
  86:app_UART.c    ****             uartTxDataNtf.value.len  = uartTxDataLength;
 247              		.loc 1 86 0
 248 0174 0C23     		movs	r3, #12
 249 0176 1022     		movs	r2, #16
 250 0178 9446     		mov	ip, r2
 251 017a BC44     		add	ip, ip, r7
 252 017c 6344     		add	r3, r3, ip
 253 017e 2422     		movs	r2, #36
 254 0180 1021     		movs	r1, #16
ARM GAS  C:\Users\BENAKA~1\AppData\Local\Temp\ccK18q1x.s 			page 7


 255 0182 8C46     		mov	ip, r1
 256 0184 BC44     		add	ip, ip, r7
 257 0186 6244     		add	r2, r2, ip
 258 0188 1288     		ldrh	r2, [r2]
 259 018a 9A80     		strh	r2, [r3, #4]
  87:app_UART.c    ****             uartTxDataNtf.attrHandle = CYBLE_SERVER_UART_SERVER_UART_TX_DATA_CHAR_HANDLE;
 260              		.loc 1 87 0
 261 018c 0C23     		movs	r3, #12
 262 018e 1022     		movs	r2, #16
 263 0190 9446     		mov	ip, r2
 264 0192 BC44     		add	ip, ip, r7
 265 0194 6344     		add	r3, r3, ip
 266 0196 0E22     		movs	r2, #14
 267 0198 1A81     		strh	r2, [r3, #8]
 268              	.L7:
  88:app_UART.c    ****             
  89:app_UART.c    ****             #ifdef FLOW_CONTROL
  90:app_UART.c    ****                 DisableUartRxInt();
  91:app_UART.c    ****             #endif
  92:app_UART.c    ****             
  93:app_UART.c    ****             do
  94:app_UART.c    ****             {
  95:app_UART.c    ****                 bleApiResult = CyBle_GattsNotification(cyBle_connHandle, &uartTxDataNtf);
 269              		.loc 1 95 0 discriminator 2
 270 019a 1A23     		movs	r3, #26
 271 019c 1022     		movs	r2, #16
 272 019e BA18     		adds	r2, r7, r2
 273 01a0 D418     		adds	r4, r2, r3
 274 01a2 0C23     		movs	r3, #12
 275 01a4 1022     		movs	r2, #16
 276 01a6 BA18     		adds	r2, r7, r2
 277 01a8 D118     		adds	r1, r2, r3
 278 01aa 144B     		ldr	r3, .L8+8
 279 01ac 1A78     		ldrb	r2, [r3]
 280 01ae 5B78     		ldrb	r3, [r3, #1]
 281 01b0 1B02     		lsls	r3, r3, #8
 282 01b2 1A43     		orrs	r2, r3
 283 01b4 0023     		movs	r3, #0
 284 01b6 1204     		lsls	r2, r2, #16
 285 01b8 120C     		lsrs	r2, r2, #16
 286 01ba 1B0C     		lsrs	r3, r3, #16
 287 01bc 1B04     		lsls	r3, r3, #16
 288 01be 1343     		orrs	r3, r2
 289 01c0 1800     		movs	r0, r3
 290 01c2 FFF7FEFF 		bl	CyBle_GattsNotification
 291 01c6 0300     		movs	r3, r0
 292 01c8 2380     		strh	r3, [r4]
  96:app_UART.c    ****                 CyBle_ProcessEvents();
 293              		.loc 1 96 0 discriminator 2
 294 01ca FFF7FEFF 		bl	CyBle_ProcessEvents
  97:app_UART.c    ****             }
  98:app_UART.c    ****             while((CYBLE_ERROR_OK != bleApiResult)  && (CYBLE_STATE_CONNECTED == cyBle_state));
 295              		.loc 1 98 0 discriminator 2
 296 01ce 1A23     		movs	r3, #26
 297 01d0 1022     		movs	r2, #16
 298 01d2 9446     		mov	ip, r2
 299 01d4 BC44     		add	ip, ip, r7
ARM GAS  C:\Users\BENAKA~1\AppData\Local\Temp\ccK18q1x.s 			page 8


 300 01d6 6344     		add	r3, r3, ip
 301 01d8 1B88     		ldrh	r3, [r3]
 302 01da 002B     		cmp	r3, #0
 303 01dc 03D0     		beq	.L2
 304              		.loc 1 98 0 is_stmt 0 discriminator 1
 305 01de 084B     		ldr	r3, .L8+12
 306 01e0 1B78     		ldrb	r3, [r3]
 307 01e2 022B     		cmp	r3, #2
 308 01e4 D9D0     		beq	.L7
 309              	.L2:
 310 01e6 3B69     		ldr	r3, [r7, #16]
 311 01e8 9D46     		mov	sp, r3
  99:app_UART.c    ****         }
 100:app_UART.c    ****     }
 101:app_UART.c    **** }
 312              		.loc 1 101 0 is_stmt 1
 313 01ea C046     		nop
 314 01ec BD46     		mov	sp, r7
 315 01ee 0FB0     		add	sp, sp, #60
 316              		@ sp needed
 317 01f0 F0BD     		pop	{r4, r5, r6, r7, pc}
 318              	.L9:
 319 01f2 C046     		.align	2
 320              	.L8:
 321 01f4 00000000 		.word	mtuSize
 322 01f8 00000000 		.word	uartIdleCount.7400
 323 01fc 00000000 		.word	cyBle_connHandle
 324 0200 00000000 		.word	cyBle_state
 325              		.cfi_endproc
 326              	.LFE35:
 327              		.size	HandleUartTxTraffic, .-HandleUartTxTraffic
 328              		.section	.text.HandleUartRxTraffic,"ax",%progbits
 329              		.align	2
 330              		.global	HandleUartRxTraffic
 331              		.code	16
 332              		.thumb_func
 333              		.type	HandleUartRxTraffic, %function
 334              	HandleUartRxTraffic:
 335              	.LFB36:
 102:app_UART.c    **** 
 103:app_UART.c    **** /*****************************************************************************************
 104:app_UART.c    **** * Function Name: HandleUartRxTraffic
 105:app_UART.c    **** ******************************************************************************************
 106:app_UART.c    **** *
 107:app_UART.c    **** * Summary:
 108:app_UART.c    **** *  This function takes data from received "write without response" command from
 109:app_UART.c    **** *  server and, pushes it to the UART TX buffer. 
 110:app_UART.c    **** *
 111:app_UART.c    **** * Parameters:
 112:app_UART.c    **** *  CYBLE_GATTS_WRITE_REQ_PARAM_T * - the "write without response" param as
 113:app_UART.c    **** *                                    recieved by the BLE stack
 114:app_UART.c    **** *
 115:app_UART.c    **** * Return:
 116:app_UART.c    **** *   None.
 117:app_UART.c    **** *
 118:app_UART.c    **** *****************************************************************************************/
 119:app_UART.c    **** void HandleUartRxTraffic(CYBLE_GATTS_WRITE_REQ_PARAM_T * uartRxDataWrReq)
ARM GAS  C:\Users\BENAKA~1\AppData\Local\Temp\ccK18q1x.s 			page 9


 120:app_UART.c    **** {
 336              		.loc 1 120 0
 337              		.cfi_startproc
 338              		@ args = 0, pretend = 0, frame = 8
 339              		@ frame_needed = 1, uses_anonymous_args = 0
 340 0000 80B5     		push	{r7, lr}
 341              		.cfi_def_cfa_offset 8
 342              		.cfi_offset 7, -8
 343              		.cfi_offset 14, -4
 344 0002 82B0     		sub	sp, sp, #8
 345              		.cfi_def_cfa_offset 16
 346 0004 00AF     		add	r7, sp, #0
 347              		.cfi_def_cfa_register 7
 348 0006 7860     		str	r0, [r7, #4]
 121:app_UART.c    ****     if(uartRxDataWrReq->handleValPair.attrHandle == CYBLE_SERVER_UART_SERVER_UART_RX_DATA_CHAR_HAND
 349              		.loc 1 121 0
 350 0008 7B68     		ldr	r3, [r7, #4]
 351 000a 9B89     		ldrh	r3, [r3, #12]
 352 000c 112B     		cmp	r3, #17
 353 000e 07D1     		bne	.L12
 122:app_UART.c    ****     {
 123:app_UART.c    ****         UART_SpiUartPutArray(uartRxDataWrReq->handleValPair.value.val, \
 354              		.loc 1 123 0
 355 0010 7B68     		ldr	r3, [r7, #4]
 356 0012 5A68     		ldr	r2, [r3, #4]
 124:app_UART.c    ****                                     (uint32) uartRxDataWrReq->handleValPair.value.len);
 357              		.loc 1 124 0
 358 0014 7B68     		ldr	r3, [r7, #4]
 359 0016 1B89     		ldrh	r3, [r3, #8]
 123:app_UART.c    ****                                     (uint32) uartRxDataWrReq->handleValPair.value.len);
 360              		.loc 1 123 0
 361 0018 1900     		movs	r1, r3
 362 001a 1000     		movs	r0, r2
 363 001c FFF7FEFF 		bl	UART_SpiUartPutArray
 364              	.L12:
 125:app_UART.c    ****     }
 126:app_UART.c    **** }
 365              		.loc 1 126 0
 366 0020 C046     		nop
 367 0022 BD46     		mov	sp, r7
 368 0024 02B0     		add	sp, sp, #8
 369              		@ sp needed
 370 0026 80BD     		pop	{r7, pc}
 371              		.cfi_endproc
 372              	.LFE36:
 373              		.size	HandleUartRxTraffic, .-HandleUartRxTraffic
 374              		.section	.text.DisableUartRxInt,"ax",%progbits
 375              		.align	2
 376              		.global	DisableUartRxInt
 377              		.code	16
 378              		.thumb_func
 379              		.type	DisableUartRxInt, %function
 380              	DisableUartRxInt:
 381              	.LFB37:
 127:app_UART.c    **** 
 128:app_UART.c    **** /*****************************************************************************************
 129:app_UART.c    **** * Function Name: DisableUartRxInt
ARM GAS  C:\Users\BENAKA~1\AppData\Local\Temp\ccK18q1x.s 			page 10


 130:app_UART.c    **** ******************************************************************************************
 131:app_UART.c    **** *
 132:app_UART.c    **** * Summary:
 133:app_UART.c    **** *  This function disables the UART RX interrupt.
 134:app_UART.c    **** *
 135:app_UART.c    **** * Parameters:
 136:app_UART.c    **** *   None.
 137:app_UART.c    **** *
 138:app_UART.c    **** * Return:
 139:app_UART.c    **** *   None.
 140:app_UART.c    **** *
 141:app_UART.c    **** *****************************************************************************************/
 142:app_UART.c    **** void DisableUartRxInt(void)
 143:app_UART.c    **** {
 382              		.loc 1 143 0
 383              		.cfi_startproc
 384              		@ args = 0, pretend = 0, frame = 0
 385              		@ frame_needed = 1, uses_anonymous_args = 0
 386 0000 80B5     		push	{r7, lr}
 387              		.cfi_def_cfa_offset 8
 388              		.cfi_offset 7, -8
 389              		.cfi_offset 14, -4
 390 0002 00AF     		add	r7, sp, #0
 391              		.cfi_def_cfa_register 7
 144:app_UART.c    ****     UART_INTR_RX_MASK_REG &= ~UART_RX_INTR_MASK;  
 392              		.loc 1 144 0
 393 0004 044B     		ldr	r3, .L14
 394 0006 044A     		ldr	r2, .L14
 395 0008 1268     		ldr	r2, [r2]
 396 000a 0421     		movs	r1, #4
 397 000c 8A43     		bics	r2, r1
 398 000e 1A60     		str	r2, [r3]
 145:app_UART.c    **** }
 399              		.loc 1 145 0
 400 0010 C046     		nop
 401 0012 BD46     		mov	sp, r7
 402              		@ sp needed
 403 0014 80BD     		pop	{r7, pc}
 404              	.L15:
 405 0016 C046     		.align	2
 406              	.L14:
 407 0018 C80F2440 		.word	1076105160
 408              		.cfi_endproc
 409              	.LFE37:
 410              		.size	DisableUartRxInt, .-DisableUartRxInt
 411              		.section	.text.EnableUartRxInt,"ax",%progbits
 412              		.align	2
 413              		.global	EnableUartRxInt
 414              		.code	16
 415              		.thumb_func
 416              		.type	EnableUartRxInt, %function
 417              	EnableUartRxInt:
 418              	.LFB38:
 146:app_UART.c    **** 
 147:app_UART.c    **** /*****************************************************************************************
 148:app_UART.c    **** * Function Name: EnableUartRxInt
 149:app_UART.c    **** ******************************************************************************************
ARM GAS  C:\Users\BENAKA~1\AppData\Local\Temp\ccK18q1x.s 			page 11


 150:app_UART.c    **** *
 151:app_UART.c    **** * Summary:
 152:app_UART.c    **** *  This function enables the UART RX interrupt.
 153:app_UART.c    **** *
 154:app_UART.c    **** * Parameters:
 155:app_UART.c    **** *   None.
 156:app_UART.c    **** *
 157:app_UART.c    **** * Return:
 158:app_UART.c    **** *   None.
 159:app_UART.c    **** *
 160:app_UART.c    **** *****************************************************************************************/
 161:app_UART.c    **** void EnableUartRxInt(void)
 162:app_UART.c    **** {
 419              		.loc 1 162 0
 420              		.cfi_startproc
 421              		@ args = 0, pretend = 0, frame = 0
 422              		@ frame_needed = 1, uses_anonymous_args = 0
 423 0000 80B5     		push	{r7, lr}
 424              		.cfi_def_cfa_offset 8
 425              		.cfi_offset 7, -8
 426              		.cfi_offset 14, -4
 427 0002 00AF     		add	r7, sp, #0
 428              		.cfi_def_cfa_register 7
 163:app_UART.c    ****     UART_INTR_RX_MASK_REG |= UART_RX_INTR_MASK;  
 429              		.loc 1 163 0
 430 0004 044B     		ldr	r3, .L17
 431 0006 044A     		ldr	r2, .L17
 432 0008 1268     		ldr	r2, [r2]
 433 000a 0421     		movs	r1, #4
 434 000c 0A43     		orrs	r2, r1
 435 000e 1A60     		str	r2, [r3]
 164:app_UART.c    **** }
 436              		.loc 1 164 0
 437 0010 C046     		nop
 438 0012 BD46     		mov	sp, r7
 439              		@ sp needed
 440 0014 80BD     		pop	{r7, pc}
 441              	.L18:
 442 0016 C046     		.align	2
 443              	.L17:
 444 0018 C80F2440 		.word	1076105160
 445              		.cfi_endproc
 446              	.LFE38:
 447              		.size	EnableUartRxInt, .-EnableUartRxInt
 448              		.data
 449              		.align	1
 450              		.type	uartIdleCount.7400, %object
 451              		.size	uartIdleCount.7400, 2
 452              	uartIdleCount.7400:
 453 0000 E803     		.short	1000
 454              		.text
 455              	.Letext0:
 456              		.file 2 "Generated_Source\\PSoC4/cytypes.h"
 457              		.file 3 "Generated_Source\\PSoC4/BLE_Stack.h"
 458              		.file 4 "Generated_Source\\PSoC4/BLE_StackGatt.h"
 459              		.file 5 "Generated_Source\\PSoC4/BLE_StackGattServer.h"
 460              		.file 6 "Generated_Source\\PSoC4/BLE_eventHandler.h"
ARM GAS  C:\Users\BENAKA~1\AppData\Local\Temp\ccK18q1x.s 			page 12


 461              		.file 7 "app_UART.h"